(dp0
I-1636
S'#FunkyBeat'
p1
sI-1654
S'#trumpgate'
p2
sI-1653
S'#upcomingArtist'
p3
sI-1652
S'#WednesdayWisdom'
p4
sI-1651
S'#SoundCloud'
p5
sI-1650
S'#latinjazz'
p6
sI-1649
S'#blues'
p7
sI-1648
S'#Hear'
p8
sI-1647
S'#LBSotA'
p9
sI-1646
S'#moda'
p10
sI-1645
S'#musica'
p11
sI-1644
S'#postumo'
p12
sI-1643
S'#Homenaje'
p13
sI-1642
S'#tribute'
p14
sI-1641
S'#PrinceRIP'
p15
sI-1640
S'#Prince'
p16
sI-1639
S'#VYBZECORNER'
p17
sI-1638
S'#SignOfTheTimes'
p18
sI-1637
S'#WorldBluesy'
p19
sI-1375
S'#dumptrump'
p20
sI-1635
S'#AfroJazzy'
p21
sI-1634
S'#EclecticMusic'
p22
sI-1633
S'#TNGCRadio'
p23
sI-1632
S'#KoreanPeninsula,'
p24
sI-1631
S'#Crisis'
p25
sI-1630
S'#Refugee'
p26
sI-1629
S'#guitar'
p27
sI-1628
S'#Hallelujah'
p28
sI-1627
S'#KlasRadio'
p29
sI-1626
S'#cosplay'
p30
sI-1625
S'#freeabridged'
p31
sI-1624
S'#haru'
p32
sI-1623
S'#nagisa'
p33
sI-1622
S'#rey'
p34
sI-1621
S'#makoto'
p35
sI-1620
S'#rin'
p36
sI-1619
S'#VoteGOP'
p37
sI-1618
S'#DontGetFooledAgain'
p38
sI-1617
S'#DemocratLiesMatter'
p39
sI-1616
S'#USAOutOfTheUN'
p40
sI-1615
S'#DefundTheUN'
p41
sI-1614
S'#BREXIT'
p42
sI-1613
S'#Impeach45'
p43
sI-1612
S'#iran'
p44
sI-1611
S'#corsair'
p45
sI-1610
S'#UploadViaBio'
p46
sI-1609
S'#auspol'
p47
sI-1608
S'#trumpcorruption'
p48
sI-1607
S'#blowjob'
p49
sI-1606
S'#paki'
p50
sI-1605
S'#sexformoney'
p51
sI-1604
S'#NEW'
p52
sI-1603
S'#2dart'
p53
sI-1602
S'#ArtsEd'
p54
sI-1601
S'#radiowithroots'
p55
sI-1600
S'#nbc'
p56
sI-1599
S'#cbs'
p57
sI-1598
S'#wgn'
p58
sI-1597
S'#phoenix'
p59
sI-1596
S'#atlanta'
p60
sI-1595
S'#chicago'
p61
sI-1594
S'#newyork'
p62
sI-1593
S'#business'
p63
sI-1592
S'#reuters'
p64
sI-1591
S'#wsj'
p65
sI-1590
S'#DOPEFOLLOWTRAIN'
p66
sI-1589
S'#dems'
p67
sI-1588
S'#syrianairstrike'
p68
sI-1587
S'#ArabTwitter'
p69
sI-1586
S'#socialmedia'
p70
sI-1585
S'#MFGA'
p71
sI-1584
S'#JeVote'
p72
sI-1583
S'#Uber'
p73
sI-1582
S'#retweet'
p74
sI-1581
S'#stocks'
p75
sI-1580
S'#TechCrunch'
p76
sI-1579
S'#funding'
p77
sI-1578
S'#gadget'
p78
sI-1577
S'#startup'
p79
sI-1576
S'#dogsoftwitter'
p80
sI-1575
S'#stray'
p81
sI-1574
S'#dogsofromania'
p82
sI-1573
S'#romania'
p83
sI-1572
S'#UnitedNations'
p84
sI-1571
S'#POTUS'
p85
sI-1570
S'#TuckerCarlson'
p86
sI-1569
S'#Hannity'
p87
sI-1568
S'#MarkLevin'
p88
sI-1567
S'#RushLimbaugh'
p89
sI-1566
S'#Birmingham'
p90
sI-1565
S'#LFC'
p91
sI-1564
S'#CFC'
p92
sI-1563
S'#afcb'
p93
sI-1562
S'#itvfootball'
p94
sI-1561
S'#TeamSky'
p95
sI-1560
S'#makemoneyonline'
p96
sI-1559
S'#GODBLESSTHEUSA'
p97
sI-1558
S'#BJP'
p98
sI-1557
S'#Congress:'
p99
sI-1556
S'#timetoimpeach'
p100
sI-1555
S'#TrumpRussi'
p101
sI-1554
S'#Headlines'
p102
sI-1553
S'#Trump......this'
p103
sI-1552
S'#onair'
p104
sI-1551
S'#CELTICFAMILY'
p105
sI-1550
S'#you'
p106
sI-1549
S'#supercut'
p107
sI-1548
S'#wtf'
p108
sI-1547
S'#says'
p109
sI-1546
S'#how'
p110
sI-1545
S'#stupid'
p111
sI-1544
S'#ThingsOfWhichToBeAshamed'
p112
sI-1543
S'#thingstobeashamedof'
p113
sI-1542
S'99%-#RestOfUS:'
p114
sI-1541
S'1%-#Oligarchy--not'
p115
sI-1540
S'#indiana'
p116
sI-1539
S'#LePen'
p117
sI-1538
S'#Suede'
p118
sI-1537
S'#TheRocks'
p119
sI-1536
S'#Gelatissimo'
p120
sI-1535
S'#fusion'
p121
sI-1534
S'#apps'
p122
sI-1533
S'#unity'
p123
sI-1532
S'#Androidgames'
p124
sI-1531
S'#mobilegames'
p125
sI-1530
S'#AmericaStrong'
p126
sI-1529
S'#DethroneTheKing'
p127
sI-1528
S'#Columbus'
p128
sI-1527
S'#Worthington'
p129
sI-1526
S'#Soros'
p130
sI-1525
S'#Panama'
p131
sI-1524
S'#Lucknow'
p132
sI-1523
S'#london'
p133
sI-1522
S'#mist'
p134
sI-1521
S'#goDam'
p135
sI-1520
S'#nffc'
p136
sI-1519
S'#EarnMoney'
p137
sI-1518
S'#WorkFromHome'
p138
sI-1517
S'#money'
p139
sI-1516
S'#earn'
p140
sI-1515
S'#bookiebashing'
p141
sI-1514
S'#matchedbetting'
p142
sI-1513
S'#SadButTrue.'
p143
sI-1512
S'#Islam'
p144
sI-1511
S'#intolerant'
p145
sI-1510
S'#liberals'
p146
sI-1509
S'#swing'
p147
sI-1508
S'#hisorchestra'
p148
sI-1507
S'#bennygoodman'
p149
sI-1506
S'#Kindness'
p150
sI-1505
S'#81'
p151
sI-1504
S'#TrumpCorruption,'
p152
sI-1503
S'#OJNR'
p153
sI-1502
S'#Sy'
p154
sI-1501
S'#TheVoiceBrasil'
p155
sI-1500
S'#Jordans...'
p156
sI-1499
S'#DJs'
p157
sI-1498
S'#Rappers'
p158
sI-1497
S'#cmobbrecords'
p159
sI-1496
S'#SARANGHAJA'
p160
sI-1495
S'#KOREA'
p161
sI-1494
S'#MUSICVIDEO'
p162
sI-1493
S'#2016'
p163
sI-1492
S'#KPOP'
p164
sI-1491
S'#EXO'
p165
sI-1490
S'#PhoneSex'
p166
sI-1489
S'#Bdsm'
p167
sI-1488
S'#Mistress'
p168
sI-1487
S'#NiteFlirt'
p169
sI-1486
S'#Sullyanne1'
p170
sI-1485
S'#resistance'
p171
sI-1484
S'#da'
p172
sI-1483
S'#muslim'
p173
sI-1482
S'#kill'
p174
sI-1481
S'#father'
p175
sI-1480
S'#kills'
p176
sI-1479
S'#head'
p177
sI-1478
S'#FF'
p178
sI-1477
S'#TFB'
p179
sI-1476
S'#F4F'
p180
sI-1475
S'#selfiesforgirlsongirls'
p181
sI-1474
S'#Mulai'
p182
sI-1473
S'#butt'
p183
sI-1472
S'#hotti'
p184
sI-1471
S'#sexygirlz'
p185
sI-1470
S'#fitbabe'
p186
sI-1469
S'#fitnessaddict'
p187
sI-1468
S'#motivation'
p188
sI-1467
S'#hot'
p189
sI-1466
S'#babe'
p190
sI-1465
S'#fitness'
p191
sI-1464
S'#fit'
p192
sI-1463
S'#soundcloud'
p193
sI-1462
S'#musicnews'
p194
sI-1461
S'#edm,'
p195
sI-1460
S'#singers,'
p196
sI-1459
S'#producer,'
p197
sI-1458
S'#xlviimag'
p198
sI-1457
S'#LinkedIn'
p199
sI-1456
S'#Mexico'
p200
sI-1455
S'#Jobs'
p201
sI-1454
S'#TheResistance:'
p202
sI-1453
S'#LiberalLogic'
p203
sI-1452
S'#Med'
p204
sI-1451
S'#UndergroundKnowledge'
p205
sI-1450
S'#JORDANIAN'
p206
sI-1449
S'#ramtha'
p207
sI-1448
S'#CrimeStories'
p208
sI-1447
S'#CrimeScene'
p209
sI-1446
S'#Gospel'
p210
sI-1445
S'#Urban'
p211
sI-1444
S'#BadHombres'
p212
sI-1443
S'#Kek'
p213
sI-1442
S'#RedPill'
p214
sI-1441
S'#altright'
p215
sI-1440
S'#playnomad'
p216
sI-1439
S'#StopIslam'
p217
sI-1438
S'#Trump,'
p218
sI-1437
S'#TheGameKnows'
p219
sI-1436
S'#MLB'
p220
sI-1435
S'#samsung'
p221
sI-1434
S'#epiphany'
p222
sI-1433
S'#RadioDance'
p223
sI-1432
S'(#Bodybangers'
p224
sI-1431
S'#enreproduccion'
p225
sI-1430
S'#djhectorcarrero'
p226
sI-1429
S'#Club40'
p227
sI-1428
S'#DellsChildrensHospital'
p228
sI-1427
S'#MonsterJam'
p229
sI-1426
S'#unity3d'
p230
sI-1425
S'#football'
p231
sI-1424
S'#ReleaseYourTaxes'
p232
sI-1423
S'#ld38'
p233
sI-1422
S'#westandunited'
p234
sI-1421
S'#RT?'
p235
sI-1420
S'#luxe'
p236
sI-1419
S'#bridal'
p237
sI-1418
S'#weddingcake'
p238
sI-1417
S'#China'
p239
sI-1416
S'#ReligiousWars'
p240
sI-1415
S'#JRock'
p241
sI-1414
S'#financial'
p242
sI-1413
S'#Trumpleaks'
p243
sI-1412
S'#WelcomeHomeAya'
p244
sI-1411
S'#ThingsT'
p245
sI-1410
S'#ca'
p246
sI-1409
S'#screenshotsaturday!'
p247
sI-1408
S'#taxmarchla'
p248
sI-1407
S'#DTLA.'
p249
sI-1406
S'#TaxMarch'
p250
sI-1405
S'#FirstTweet'
p251
sI-1404
S'#album'
p252
sI-1403
S'#studiolife'
p253
sI-1402
S'#305'
p254
sI-1401
S'#miami'
p255
sI-1400
S'#losduros'
p256
sI-1399
S'#producing'
p257
sI-1398
S'#CountryMusic'
p258
sI-1397
S'#lottery'
p259
sI-1396
S'#cosmetics'
p260
sI-1395
S'#HairColour'
p261
sI-1394
S'#WIN'
p262
sI-1393
S'#Melania'
p263
sI-1392
S'#Mealsonwheels'
p264
sI-1391
S'#REALHIPHOP'
p265
sI-1390
S'#spreaker'
p266
sI-1389
S'#Kitsune'
p267
sI-1388
S'#Rp'
p268
sI-1387
S'#brexit:'
p269
sI-1386
S'#Latest'
p270
sI-1385
S'#UPI'
p271
sI-1384
S'#psychicalresearch'
p272
sI-1383
S'#WinItWednesday'
p273
sI-1382
S'#DesertIslandSkin'
p274
sI-1381
S'#FLW'
p275
sI-1380
S'#Bronnley'
p276
sI-1379
S'#fetish'
p277
sI-1378
S'#gay'
p278
sI-1377
S'#sexshop'
p279
sI-1376
S'#Resistance'
p280
sI-1
S'#ThingsToBeAshamedOf'
p281
sI-1374
S'#FetishPorn'
p282
sI-1373
S'#Spoil'
p283
sI-1372
S'#bigTits'
p284
sI-1371
S'#TitsAddicted'
p285
sI-1370
S'#Rt'
p286
sI-1369
S'#iwc'
p287
sI-1368
S'#BigTitsBoss'
p288
sI-1367
S'#dope'
p289
sI-1366
S'#newmusic'
p290
sI-1365
S'#melody'
p291
sI-1364
S'#triphop'
p292
sI-1363
S'#instrumental'
p293
sI-1362
S'#chillhop'
p294
sI-1361
S'#M'
p295
sI-1360
S'#BoycottTheCircus'
p296
sI-1359
S'#Republican'
p297
sI-1358
S'usage#ThingsToBeAshamedOf'
p298
sI-1357
S'#indiedevhour'
p299
sI-1356
S'#gowns'
p300
sI-1355
S'#weddingdress'
p301
sI-1354
S'#marriage'
p302
sI-1353
S'#wealth'
p303
sI-1352
S'#Zahraa/#'
p304
sI-1351
S'#DefendEuropa'
p305
sI-1350
S'#entertainment'
p306
sI-1349
S'#hollywood'
p307
sI-1348
S'#JaredKushner'
p308
sI-1347
S'#IvankaTrump'
p309
sI-1346
S'#PlayNintendo'
p310
sI-1345
S'#MumfordAndSons'
p311
sI-1344
S'#SanMarcos'
p312
sI-1343
S'#Nissan'
p313
sI-1342
S'#JOB'
p314
sI-1341
S'#WORK'
p315
sI-1340
S'#BANK'
p316
sI-1339
S'#TrumpTaxReturns.'
p317
sI-1338
S'#digitalmarketing,'
p318
sI-1337
S'#Channel_CMO_Zone'
p319
sI-1336
S'#syria'
p320
sI-1335
S'#KARMA'
p321
sI-1334
S'#CRACK'
p322
sI-1333
S'#cookies'
p323
sI-1332
S'#foodcoma'
p324
sI-1331
S'#foodbaby'
p325
sI-1330
S'#HourRead'
p326
sI-1329
S'#BestSeller'
p327
sI-1328
S'#Witches'
p328
sI-1327
S'#Suspense'
p329
sI-1326
S'#Hiring'
p330
sI-1325
S'#job?'
p331
sI-1324
S'#2DopeBoyz'
p332
sI-1323
S'#P'
p333
sI-1322
S'#EastDelhiMunicipalCorporation'
p334
sI-1321
S'#synth'
p335
sI-1320
S'#moog'
p336
sI-1319
S'#film'
p337
sI-1318
S'#soundtrack'
p338
sI-1317
S'#IDM'
p339
sI-1316
S'#techno'
p340
sI-1315
S'#ambient'
p341
sI-1314
S'#electronic'
p342
sI-1313
S'#Isolationist'
p343
sI-1312
S'#Singapore'
p344
sI-1311
S'#wnrrgospel'
p345
sI-1310
S'#Salute'
p346
sI-1309
S'#Funkup'
p347
sI-1308
S'#AskQuestions#Liveme'
p348
sI-1307
S'#HeavyMetal'
p349
sI-1306
S'#txlege'
p350
sI-1305
S'#RetroHitsCanada'
p351
sI-1304
S'#Thin'
p352
sI-1303
S'#Muslims'
p353
sI-1302
S'#Da'
p354
sI-1301
S'#Worth'
p355
sI-1300
S'#FOX'
p356
sI-1299
S'#KDFW'
p357
sI-1298
S'#Fort'
p358
sI-1297
S'#koblenz'
p359
sI-1296
S'#xfreecamsxx'
p360
sI-1295
S'#AP'
p361
sI-1294
S'#Mix'
p362
sI-1293
S'#Deejay'
p363
sI-1292
S'#Electro'
p364
sI-1291
S'#StopCorruption'
p365
sI-1290
S'#EndtheDuopoly'
p366
sI-1289
S'#IF'
p367
sI-1288
S'#lifelong'
p368
sI-1287
S'#companion'
p369
sI-1286
S'#dogs'
p370
sI-1285
S'#puppies'
p371
sI-1284
S'#pets'
p372
sI-1283
S'#photography'
p373
sI-1282
S'#beautiful'
p374
sI-1281
S'#wealthfiles'
p375
sI-1280
S'#JPop'
p376
sI-1279
S'#TGT'
p377
sI-1278
S'#soul'
p378
sI-1277
S'#Aya'
p379
sI-1276
S'#Imagination'
p380
sI-1275
S'#Science'
p381
sI-1274
S'#Education'
p382
sI-1273
S'#RWNJ'
p383
sI-1272
S'#Democrats,'
p384
sI-1271
S'#MuslimApologists'
p385
sI-1270
S'#Marxists'
p386
sI-1269
S'#indieartist'
p387
sI-1268
S'#musicblog'
p388
sI-1267
S'#musicvideos'
p389
sI-1266
S'#UnitedAirlines'
p390
sI-1265
S'#agents'
p391
sI-1264
S'#University'
p392
sI-1263
S'#Emory'
p393
sI-1262
S'#WeFamilyRadio.org'
p394
sI-1261
S'#chillfridayplaylist'
p395
sI-1260
S'#Disney'
p396
sI-1259
S'#cinderella'
p397
sI-1258
S'#@@'
p398
sI-1257
S'#LetsRock'
p399
sI-1256
S'#TxMusic247'
p400
sI-1255
S'#TexasProud'
p401
sI-1254
S'#TexasLoud'
p402
sI-1253
S'#dogglounge'
p403
sI-1252
S'#Buzz'
p404
sI-1251
S'#TomHiddleston,'
p405
sI-1250
S'#oldies100nj'
p406
sI-1249
S'#Bobby'
p407
sI-1248
S'#trumpcolluded'
p408
sI-1247
S'#France,'
p409
sI-1246
S'#competitiontime'
p410
sI-1245
S'#tagafriend'
p411
sI-1244
S'#ReplaceRyan'
p412
sI-1243
S'#Ryan,'
p413
sI-1242
S'#Paul'
p414
sI-1241
S'#remember'
p415
sI-1240
S'#noventa'
p416
sI-1239
S'#dannychoo'
p417
sI-1238
S'#Haseo'
p418
sI-1237
S'#dotroots'
p419
sI-1236
S'#dothacksign'
p420
sI-1235
S'#sao2'
p421
sI-1234
S'#sao'
p422
sI-1233
S',#Iraq'
p423
sI-1232
S'#BeAshamedVeryAshamed'
p424
sI-1231
S'#ListenToThis:'
p425
sI-1230
S'#DOJ'
p426
sI-1229
S'#hits'
p427
sI-1228
S'#VoteDems'
p428
sI-1227
S'#o'
p429
sI-1226
S'#dragonball'
p430
sI-1225
S'#fairytail'
p431
sI-1224
S'#pokemons'
p432
sI-1223
S'#naruto'
p433
sI-1222
S'#narutouzumakie'
p434
sI-1221
S'#TPFA'
p435
sI-1220
S'#artbook'
p436
sI-1219
S'#comicbook'
p437
sI-1218
S'#comic'
p438
sI-1217
S'#warrior'
p439
sI-1216
S'#epic'
p440
sI-1215
S'#elf'
p441
sI-1214
S'#MAGA!'
p442
sI-1213
S'#AMJoy'
p443
sI-1212
S'#fear,'
p444
sI-1211
S"'#Ignorance"
p445
sI-1210
S'#MichaelMoore:'
p446
sI-1209
S'#DailyCupOfLifeJuice'
p447
sI-1208
S'#Andromeda'
p448
sI-1207
S'#ThursdayThoughts'
p449
sI-1206
S'#Singer'
p450
sI-1205
S'#CD'
p451
sI-1204
S'#NintendoSwitch'
p452
sI-1203
S'#Ad'
p453
sI-1202
S'#Deals'
p454
sI-1201
S'#Good'
p455
sI-1200
S'#EltonJohn'
p456
sI-1199
S'#Music:'
p457
sI-1198
S'#Musics'
p458
sI-1197
S'#Yemen'
p459
sI-1196
S'#Entertainment'
p460
sI-1195
S'#Actor'
p461
sI-1194
S'#VMHitList'
p462
sI-1193
S'#LindaRonstadt'
p463
sI-1192
S'#SYRIA'
p464
sI-1191
S'#ThingsToBeAshamedOf...'
p465
sI-1190
S'#vexradio'
p466
sI-1189
S'#Radio'
p467
sI-1188
S'#RockLanOne'
p468
sI-1187
S'#wildhorses'
p469
sI-1186
S'#PamelaAnderson'
p470
sI-1185
S'#assange'
p471
sI-1184
S'#70vibefm:'
p472
sI-1183
S'#UFC'
p473
sI-1182
S'#MMA'
p474
sI-1181
S'#p2'
p475
sI-1180
S'#internet'
p476
sI-1179
S'#BetheChange'
p477
sI-1178
S'#Progressives'
p478
sI-1177
S'#OurVoice'
p479
sI-1176
S'#AsSoonAsIStarted'
p480
sI-1175
S'#MV'
p481
sI-1174
S'#RPGMakerMV'
p482
sI-1173
S'#TheVoiceOfThePeople'
p483
sI-1172
S'#StayConnected'
p484
sI-1171
S'#ListenLive'
p485
sI-1170
S'#ArticleSpinner'
p486
sI-1169
S'#SEO'
p487
sI-1168
S'#heavymetal'
p488
sI-1167
S'#metal'
p489
sI-1166
S'#hardrock'
p490
sI-1165
S'anti-#EU'
p491
sI-1164
S'#Urock'
p492
sI-1163
S'#reportcard'
p493
sI-1162
S'#promisekept'
p494
sI-1161
S'#FAIL'
p495
sI-1160
S'#ParisAttack'
p496
sI-1159
S'#EuropeanUnion."'
p497
sI-1158
S'#OpenBorders'
p498
sI-1157
S'#Terror'
p499
sI-1156
S'#nonstop'
p500
sI-1155
S'#rawstyle'
p501
sI-1154
S'#hardstyle'
p502
sI-1153
S'#freestyle'
p503
sI-1152
S'#RoyceDa59'
p504
sI-1151
S'#Mail'
p505
sI-1150
S'#Globe'
p506
sI-1149
S'#classicrock'
p507
sI-1148
S'#lovesongs'
p508
sI-1147
S'#NHSEngland'
p509
sI-1146
S'now?#Retweet'
p510
sI-1145
S'#MusicInLoudFrequency'
p511
sI-1144
S'#Online'
p512
sI-1143
S'#wx'
p513
sI-1142
S'#Code7'
p514
sI-1141
S'#beautiful.'
p515
sI-1140
S'#Radio.'
p516
sI-1139
S'#Michael'
p517
sI-1138
S'#StreetStyleRadio'
p518
sI-1137
S'#GangOfPutin'
p519
sI-1136
S'#Comey'
p520
sI-1135
S'#NewYork'
p521
sI-1134
S'#FOLLOW'
p522
sI-1133
S'#AB'
p523
sI-1132
S'#FoxNews'
p524
sI-1131
S'#BBC'
p525
sI-1130
S'#MikePence'
p526
sI-1129
S'#GMO'
p527
sI-1128
S'#Monsanto'
p528
sI-1127
S'#BoycottGMO'
p529
sI-1126
S'#BoycottMosanto'
p530
sI-1125
S'#discomusic'
p531
sI-1124
S'#RSA'
p532
sI-1123
S'#Angola'
p533
sI-1122
S'#Namibia'
p534
sI-1121
S'#Africa'
p535
sI-1120
S'#SouthAfrica'
p536
sI-1119
S'#Cuba'
p537
sI-1118
S'#LiveOnSourceLifeRadio'
p538
sI-1117
S'#checkitout'
p539
sI-1116
S'#GRE'
p540
sI-1115
S'#PokemonGO'
p541
sI-1114
S'#SMH'
p542
sI-1113
S'#Monocle'
p543
sI-1112
S'#RefugeeBan'
p544
sI-1111
S'#BuildTheWall'
p545
sI-1110
S'#gamerscore'
p546
sI-1109
S'#breakingnews'
p547
sI-1108
S'#LISTEN'
p548
sI-1107
S'#TalkRadio'
p549
sI-1106
S'&amp;#039;Latest&amp;#039;:'
p550
sI-1105
S'#steam'
p551
sI-1104
S'#orlygift'
p552
sI-1103
S'#w4wnradio'
p553
sI-1102
S'#bitcoin'
p554
sI-1101
S'#blockchain'
p555
sI-1100
S'#banking'
p556
sI-1099
S'#finance'
p557
sI-1098
S'#EasyListening'
p558
sI-1097
S'#thefamilystation'
p559
sI-1096
S'#WOGS1039FM'
p560
sI-1095
S'#Religions'
p561
sI-1094
S'#friends'
p562
sI-1093
S'#italy'
p563
sI-1092
S'#GER'
p564
sI-1091
S'#france'
p565
sI-1090
S'#German'
p566
sI-1089
S'#android'
p567
sI-1088
S'#lyrics'
p568
sI-1087
S'#contest'
p569
sI-1086
S'#LgbtqPerversion'
p570
sI-1085
S'#bikinis'
p571
sI-1084
S'#bathingsuit'
p572
sI-1083
S'#Surf'
p573
sI-1082
S'#beaches'
p574
sI-1081
S'#desconto'
p575
sI-1080
S'#oferta'
p576
sI-1079
S'#top'
p577
sI-1078
S'#w4hcradio'
p578
sI-1077
S'#6music'
p579
sI-1076
S'#2A'
p580
sI-1075
S'#SecondAmendment'
p581
sI-1074
S'#2ndAmendment'
p582
sI-1073
S'#indiemusic'
p583
sI-1072
S'#ARRMUSICAL'
p584
sI-1071
S'#IlayathalapathyVijay'
p585
sI-1070
S'#Thalapathy61'
p586
sI-1069
S'#Thalaiva'
p587
sI-1068
S'#pinoymusic'
p588
sI-1067
S'#SupportOPM'
p589
sI-1066
S'"#Sarin'
p590
sI-1065
S'#CorruptGOP'
p591
sI-1064
S'#TrumpRussiaCoverUp'
p592
sI-1063
S'#ScienceNotSilence'
p593
sI-1062
S'#TrumpLeaks:'
p594
sI-1061
S'#ListenHere'
p595
sI-1060
S'#NOwplaying'
p596
sI-1059
S'#Newmusicalert'
p597
sI-1058
S'#DOWNLOAD'
p598
sI-1057
S'#DearTom'
p599
sI-1056
S'#80smusic'
p600
sI-1055
S'#Fairground'
p601
sI-1054
S'#radionomy'
p602
sI-1053
S'#Hits'
p603
sI-1052
S'#90s'
p604
sI-1051
S'#Listenlive'
p605
sI-1050
S'#IbizaISLovinit'
p606
sI-1049
S'#Reckoning'
p607
sI-1048
S'#AmericanSpring'
p608
sI-1047
S'#GuiltyOfSedition?'
p609
sI-1046
S'#djset'
p610
sI-1045
S'#Music#Liveme'
p611
sI-1044
S'#LDJAM38'
p612
sI-1043
S'#gamejam'
p613
sI-1042
S'#INDIEGAMES'
p614
sI-1041
S'#ludumdare'
p615
sI-1040
S'#LudumDare38'
p616
sI-1039
S'#streamersconnecte'
p617
sI-1038
S'#TeamEmmmmsie'
p618
sI-1037
S'#brexit'
p619
sI-1036
S'#EUref'
p620
sI-1035
S'#Call'
p621
sI-1034
S'#Xbox'
p622
sI-1033
S'#nederland:'
p623
sI-1032
S'#softshop'
p624
sI-1031
S'#aangeboden'
p625
sI-1030
S'#DrainTheSwamp'
p626
sI-1029
S'#FromRussiaWithLove'
p627
sI-1028
S'#Fake45'
p628
sI-1027
S'#Blue'
p629
sI-1026
S'#BgoMarketplace'
p630
sI-1025
S'#BREAKING:'
p631
sI-1024
S'#WakeMeIn2020'
p632
sI-1023
S'#ObamacareLITE'
p633
sI-1022
S'#PaulRyan'
p634
sI-1021
S'#MusicInspiresLife'
p635
sI-1020
S'#musicislife'
p636
sI-1019
S'#edmfamily'
p637
sI-1018
S'#xxx'
p638
sI-1017
S'#Babe'
p639
sI-1016
S'#Tetas'
p640
sI-1015
S'#Nsfw'
p641
sI-1014
S'#sexy'
p642
sI-1013
S'#TrumpLeaks'
p643
sI-1012
S'#PutinsPuppet'
p644
sI-1011
S'#TrumpTreason'
p645
sI-1010
S'#TrumpColluded'
p646
sI-1009
S'#TrumpTrain'
p647
sI-1008
S'#Dobbs'
p648
sI-1007
S'#gameDev'
p649
sI-1006
S'#AssetStore'
p650
sI-1005
S'#EGHRocks'
p651
sI-1004
S'#listen'
p652
sI-1003
S'#fresh'
p653
sI-1002
S'#quality'
p654
sI-1001
S'#JOY'
p655
sI-1000
S'#poll'
p656
sI-999
S'#DREAMer'
p657
sI-998
S'#DACA'
p658
sI-997
S'#pokemon'
p659
sI-996
S'#Pokemongo'
p660
sI-995
S'#SBSL'
p661
sI-994
S'#mastermind'
p662
sI-993
S'#book.'
p663
sI-992
S'#mustread'
p664
sI-991
S'#ThinkandGrowRich'
p665
sI-990
S'#truth'
p666
sI-989
S'#EGHRadio'
p667
sI-988
S'#IoT'
p668
sI-987
S'#BigData'
p669
sI-986
S'#Gossip'
p670
sI-985
S'#Bluehand'
p671
sI-984
S'#TrumpsArmy'
p672
sI-983
S'#TrumpStrong'
p673
sI-982
S'#OldManStoneZone'
p674
sI-981
S'#ASOT800'
p675
sI-980
S'#throwback'
p676
sI-979
S'#UN:'
p677
sI-978
S'#PresidentElectTrump'
p678
sI-977
S'#RapArtists...'
p679
sI-976
S'#instrumentals'
p680
sI-975
S'#lnyhbt'
p681
sI-974
S'#writers'
p682
sI-973
S'#readers'
p683
sI-972
S'#LDJAM'
p684
sI-971
S'#british'
p685
sI-970
S'#review'
p686
sI-969
S'#RPG'
p687
sI-968
S'#Dustbowl'
p688
sI-967
S'#Direct'
p689
sI-966
S'#FollowBack'
p690
sI-965
S'#Followme'
p691
sI-964
S'#GFRIEND'
p692
sI-963
S'#Trust'
p693
sI-962
S'#smoothjazz'
p694
sI-961
S'#downtempo'
p695
sI-960
S'#chillout'
p696
sI-959
S'#mad'
p697
sI-958
S'#indiega'
p698
sI-957
S'#steamgreenlight'
p699
sI-956
S'#mix247edm'
p700
sI-955
S'#dance'
p701
sI-954
S'#ycot'
p702
sI-953
S'#NP:'
p703
sI-952
S'#RecordStoreDay'
p704
sI-951
S'#Congress,'
p705
sI-950
S'#Clinton'
p706
sI-949
S'#Gangsta'
p707
sI-948
S'#DirtySouth'
p708
sI-947
S'#Share'
p709
sI-946
S'#RapArtists'
p710
sI-945
S'#BuyThisBeat'
p711
sI-944
S'#tw4rw'
p712
sI-943
S'#READ'
p713
sI-942
S'#MGWV'
p714
sI-941
S'#adore'
p715
sI-940
S'#blooming'
p716
sI-939
S'#heart'
p717
sI-938
S'#romantic'
p718
sI-937
S'#beauty'
p719
sI-936
S'#love'
p720
sI-935
S'#Valentines'
p721
sI-934
S'#roses'
p722
sI-933
S'#creaturedesign'
p723
sI-932
S'#zbrush'
p724
sI-931
S'#buns'
p725
sI-930
S'#ass'
p726
sI-929
S'#booty'
p727
sI-928
S'#bigbootyhoe'
p728
sI-927
S'#ThingsToBeAshamedOf:'
p729
sI-926
S'#tlot'
p730
sI-925
S'#1A'
p731
sI-924
S'#antifa'
p732
sI-923
S'#jesus'
p733
sI-922
S'#congress'
p734
sI-921
S'#sex'
p735
sI-920
S'#FreebieFriday'
p736
sI-919
S'#giveaway'
p737
sI-918
S'#QueenElizabeth'
p738
sI-917
S'#Disappointment'
p739
sI-916
S'#109'
p740
sI-915
S'#altgov'
p741
sI-914
S'#Superhero'
p742
sI-913
S'#StandforScience'
p743
sI-912
S'#MarchforScience'
p744
sI-911
S'#EU-'
p745
sI-910
S'#949StarCountry'
p746
sI-909
S'#IndieDev'
p747
sI-908
S'#BoschAmazon'
p748
sI-907
S'#IndependentCommission'
p749
sI-906
S'#TrumpRussiaCollusion'
p750
sI-905
S'#Camgirl'
p751
sI-904
S'#HRC2016'
p752
sI-903
S'#Webradio'
p753
sI-902
S'#Tophits'
p754
sI-901
S'#ResistingHate'
p755
sI-900
S'#Submit'
p756
sI-899
S'#follow4follow'
p757
sI-898
S'#twitterking.'
p758
sI-897
S'#Alabama'
p759
sI-896
S'#ListenLive:'
p760
sI-895
S'#remix'
p761
sI-894
S'#ISIS'
p762
sI-893
S'#April15'
p763
sI-892
S'#band'
p764
sI-891
S'#Teen'
p765
sI-890
S'#VinylAmbush'
p766
sI-889
S'#Checkout'
p767
sI-888
S'#Website'
p768
sI-887
S'#BrokenRecords'
p769
sI-886
S'#HouseMusic'
p770
sI-885
S'#LOVEitation'
p771
sI-884
S'#radio1'
p772
sI-883
S'#Fa'
p773
sI-882
S'#Kindle'
p774
sI-881
S'#April15.'
p775
sI-880
S'#marchforscience'
p776
sI-879
S'#INFORMATION'
p777
sI-878
S'#musik'
p778
sI-877
S'#Assad:There'
p779
sI-876
S'#OSN'
p780
sI-875
S'#jugs'
p781
sI-874
S'#tatas'
p782
sI-873
S'#titayyyeesss'
p783
sI-872
S'#melons'
p784
sI-871
S'#tits'
p785
sI-870
S'#boobies'
p786
sI-869
S'#PEAKDEMAND'
p787
sI-868
S'#FUTURE'
p788
sI-867
S'#HOPE'
p789
sI-866
S'#SUSTAINABILITY'
p790
sI-865
S'#CLIMATE'
p791
sI-864
S'#EARTHDAY'
p792
sI-863
S'#party'
p793
sI-862
S'#ibiza2017'
p794
sI-861
S'#ibiza'
p795
sI-860
S'#Lov3'
p796
sI-859
S'#Peace'
p797
sI-858
S'#KeepOnSmiling'
p798
sI-857
S'#Business_Card'
p799
sI-856
S'#Professional'
p800
sI-855
S'#France'
p801
sI-854
S'#UnitedKingdom'
p802
sI-853
S'#Germany'
p803
sI-852
S'#cookware'
p804
sI-851
S'#japan'
p805
sI-850
S'#enka'
p806
sI-849
S'#JPOP'
p807
sI-848
S'#REPIN'
p808
sI-847
S'#SDV'
p809
sI-846
S'#BetaAjudaBeta'
p810
sI-845
S'#TimBeta'
p811
sI-844
S'#TimBetaHardcore'
p812
sI-843
S'#breasts'
p813
sI-842
S'#datingadvice'
p814
sI-841
S'#pounding'
p815
sI-840
S'#Oberhausen'
p816
sI-839
S'#persist'
p817
sI-838
S'#WakeUpAmerica'
p818
sI-837
S'#ccot'
p819
sI-836
S'#ciot'
p820
sI-835
S'#tiot'
p821
sI-834
S'#memes'
p822
sI-833
S'#ETC'
p823
sI-832
S'#Ethereum'
p824
sI-831
S'#w4cyradio'
p825
sI-830
S'#App'
p826
sI-829
S'#UKIP'
p827
sI-828
S'#Tories'
p828
sI-827
S'#CrookedLyinDonald'
p829
sI-826
S'#Technology'
p830
sI-825
S'#PresidentTrump'
p831
sI-824
S'#management:'
p832
sI-823
S'#NATO'
p833
sI-822
S'#News)'
p834
sI-821
S'#Boxing'
p835
sI-820
S'#Immigrants'
p836
sI-819
S'#90smusic'
p837
sI-818
S'#ICYMI:'
p838
sI-817
S'#Trump/#GOP'
p839
sI-816
S'#Legendary'
p840
sI-815
S'#Russia:'
p841
sI-814
S'#FSB'
p842
sI-813
S'#Oligarchs'
p843
sI-812
S'#gig...'
p844
sI-811
S'#tourlife'
p845
sI-810
S'#tour'
p846
sI-809
S'#vagxtour'
p847
sI-808
S'#tennessee'
p848
sI-807
S'#knoxville'
p849
sI-806
S'#shenanigans'
p850
sI-805
S'#Artists'
p851
sI-804
S'#priceless'
p852
sI-803
S'#ThisIsNotNormal'
p853
sI-802
S'#Mentalhealth'
p854
sI-801
S'#austin'
p855
sI-800
S'#texas'
p856
sI-799
S'#fr'
p857
sI-798
S'#caliring'
p858
sI-797
S'#stole'
p859
sI-796
S'#pls'
p860
sI-795
S'#man'
p861
sI-794
S'#92:'
p862
sI-793
S'#Funk'
p863
sI-792
S'#Reggae'
p864
sI-791
S'#musicbiz'
p865
sI-790
S'#djs'
p866
sI-789
S'#trum'
p867
sI-788
S'#footfetish'
p868
sI-787
S'#iFBteam'
p869
sI-786
S'#ShanTrixs'
p870
sI-785
S'#itNews'
p871
sI-784
S'#tips'
p872
sI-783
S'#Trixs'
p873
sI-782
S'#PC'
p874
sI-781
S'#working'
p875
sI-780
S'#Jesuschrist'
p876
sI-779
S'#Jesus'
p877
sI-778
S'#bible'
p878
sI-777
S'#Anghami'
p879
sI-776
S'#Comics'
p880
sI-775
S'#HorrorPunk'
p881
sI-774
S'#NerdCore'
p882
sI-773
S'#Nerd'
p883
sI-772
S'#GeekCore'
p884
sI-771
S'#Geek'
p885
sI-770
S'#Podcast...'
p886
sI-769
S'#Syria:'
p887
sI-768
S'#BreakingNews'
p888
sI-767
S'#Kickstarter'
p889
sI-766
S'#Album'
p890
sI-765
S'#Final'
p891
sI-764
S'#pop'
p892
sI-763
S'#rnb'
p893
sI-762
S'#producerslife'
p894
sI-761
S'#fruityloops'
p895
sI-760
S'#studioflow'
p896
sI-759
S'#DissentionISpatriotic'
p897
sI-758
S'#FUDJT'
p898
sI-757
S'#TrumpisA6xBankruptcyKing'
p899
sI-756
S'#FlashbackFriday'
p900
sI-755
S'#Gambino'
p901
sI-754
S'#100Days'
p902
sI-753
S'#download'
p903
sI-752
S'#ObamaLegacy'
p904
sI-751
S'#democrats'
p905
sI-750
S'#NonStopHits'
p906
sI-749
S'#reverbna'
p907
sI-748
S'#dvon'
p908
sI-747
S'#googlealert'
p909
sI-746
S'#gamers!'
p910
sI-745
S'#weather'
p911
sI-744
S'#news,'
p912
sI-743
S'#KUTV2News'
p913
sI-742
S'#ImStillWithHer'
p914
sI-741
S'#NotMyPresident'
p915
sI-740
S'#pokemongo'
p916
sI-739
S'#turnthisup'
p917
sI-738
S'#sotd'
p918
sI-737
S'#dj'
p919
sI-736
S'#TryanCare.'
p920
sI-735
S'#RyanCare'
p921
sI-734
S'#TrumpCare'
p922
sI-733
S'#BestfriendFM'
p923
sI-732
S'#BanMuslims'
p924
sI-731
S'#BuildWalls,'
p925
sI-730
S'#grope,'
p926
sI-729
S'#FBI'
p927
sI-728
S'#intelligence'
p928
sI-727
S'#security'
p929
sI-726
S'#pharma'
p930
sI-725
S'#Neo4j'
p931
sI-724
S'#Cypher'
p932
sI-723
S'#denabank'
p933
sI-722
S'#gain'
p934
sI-721
S'#Gold'
p935
sI-720
S'#HOSERS.'
p936
sI-719
S'#Traitorous'
p937
sI-718
S'#520PROMO'
p938
sI-717
S'#JoseGonzales'
p939
sI-716
S'#LVE!'
p940
sI-715
S'#TeamBossyGals'
p941
sI-714
S'#art'
p942
sI-713
S'#SAA'
p943
sI-712
S'#NorthernHama'
p944
sI-711
S'#Hama'
p945
sI-710
S'#almalki'
p946
sI-709
S'#GA06'
p947
sI-708
S'#60s'
p948
sI-707
S'#slow'
p949
sI-706
S'#1000oldies'
p950
sI-705
S'#iHabAmir'
p951
sI-704
S'#AhmedGamal'
p952
sI-703
S'#inter_onair'
p953
sI-702
S'#iphone'
p954
sI-701
S'#shop'
p955
sI-700
S'#shopping'
p956
sI-699
S'#3'
p957
sI-698
S'#THUGLIFE'
p958
sI-697
S'#WORKLIFE'
p959
sI-696
S'#Philippines'
p960
sI-695
S'#TimFargo'
p961
sI-694
S'#humility'
p962
sI-693
S'#wisdom'
p963
sI-692
S'#Zahraa/#Nubl'
p964
sI-691
S'#Tamurah'
p965
sI-690
S'#Victory_Morning'
p966
sI-689
S'#NorthernAleppo'
p967
sI-688
S'#Aleppo'
p968
sI-687
S'#WiiU'
p969
sI-686
S'#SmashBros'
p970
sI-685
S'#tierlist!'
p971
sI-684
S'#Slangsmith'
p972
sI-683
S'#ArrestHillary'
p973
sI-682
S'#ArrestObama'
p974
sI-681
S'#HILLARY....2'
p975
sI-680
S'#OBAMA'
p976
sI-679
S'#Mixtapes'
p977
sI-678
S'#DragRace'
p978
sI-677
S'#EDM'
p979
sI-676
S'#OnAirNow'
p980
sI-675
S'#Putin'
p981
sI-674
S'#xboxgold'
p982
sI-673
S'#12month'
p983
sI-672
S'#xboxlive'
p984
sI-671
S'#xbox'
p985
sI-670
S'#ad'
p986
sI-669
S'#travel'
p987
sI-668
S'#tech'
p988
sI-667
S'#uk'
p989
sI-666
S'#usa'
p990
sI-665
S'#m'
p991
sI-664
S'#gamersunite'
p992
sI-663
S'#FakeNews,'
p993
sI-662
S'#New'
p994
sI-661
S'#MTV'
p995
sI-660
S'#pooping!'
p996
sI-659
S'#Parody'
p997
sI-658
S'#Comedy'
p998
sI-657
S'#bathroom'
p999
sI-656
S'#DonaldTrump'
p1000
sI-655
S'#2a'
p1001
sI-654
S'#trump45'
p1002
sI-653
S'#trumptrain'
p1003
sI-652
S'#bbcnews'
p1004
sI-651
S'#msnbc'
p1005
sI-650
S'#Frenchelections'
p1006
sI-649
S'#AsianGames'
p1007
sI-648
S'#esports'
p1008
sI-647
S'#AI'
p1009
sI-646
S'#mobilebanking'
p1010
sI-645
S'#fintech'
p1011
sI-644
S'#Banking'
p1012
sI-643
S'#Loyalty'
p1013
sI-642
S'#Digital'
p1014
sI-641
S'#UrbanRadio'
p1015
sI-640
S'#solarcore'
p1016
sI-639
S'#madeinunity'
p1017
sI-638
S'#screenshotsaturday'
p1018
sI-637
S'#net'
p1019
sI-636
S'#label'
p1020
sI-635
S'#fastest'
p1021
sI-634
S'#downloads'
p1022
sI-633
S'#trap'
p1023
sI-632
S'#SPBiz'
p1024
sI-631
S'#documentary'
p1025
sI-630
S'#premiere'
p1026
sI-629
S'#Chicago'
p1027
sI-628
S'#WEEKEND'
p1028
sI-627
S'#kindleunlimited'
p1029
sI-626
S'#Books'
p1030
sI-625
S'#G1'
p1031
sI-624
S'#99cents'
p1032
sI-623
S'#Thriller'
p1033
sI-622
S'#Awesome'
p1034
sI-621
S'#WeLit#Liveme'
p1035
sI-620
S'#Boricuas'
p1036
sI-619
S'#Bestfriends'
p1037
sI-618
S'#FridayFeeling'
p1038
sI-617
S'#trumplea'
p1039
sI-616
S'#ShipBall'
p1040
sI-615
S'#ISupportAnIndependentTrumpRussiaProbe'
p1041
sI-614
S'#BobMarley'
p1042
sI-613
S'#Stitcher'
p1043
sI-612
S'#420'
p1044
sI-611
S'#giveahoot'
p1045
sI-610
S'#tapoos'
p1046
sI-609
S'#RAP'
p1047
sI-608
S'#CYPH'
p1048
sI-607
S'#SoundcheckiRadioNetwork'
p1049
sI-606
S'#Exxon'
p1050
sI-605
S'#Putin,'
p1051
sI-604
S'#Tillerson,'
p1052
sI-603
S'#America'
p1053
sI-602
S'#health'
p1054
sI-601
S'#massagers'
p1055
sI-600
S'#presideration'
p1056
sI-599
S'#obama'
p1057
sI-598
S'#inauguration#trumpinauguration'
p1058
sI-597
S'#ThoughtLeader'
p1059
sI-596
S'#bank'
p1060
sI-595
S'#seduce'
p1061
sI-594
S'#ThinkTank'
p1062
sI-593
S'#cirrusplayer'
p1063
sI-592
S'#EPA'
p1064
sI-591
S'#WW3'
p1065
sI-590
S'#taxes'
p1066
sI-589
S'#climate'
p1067
sI-588
S'#privacy'
p1068
sI-587
S'#Mercer?'
p1069
sI-586
S'"#DACA'
p1070
sI-585
S'#TeamTrump'
p1071
sI-584
S"#Obama's"
p1072
sI-583
S'#DayofSilence'
p1073
sI-582
S'#lgbtq'
p1074
sI-581
S'#Flipthe5th'
p1075
sI-580
S'#nature'
p1076
sI-579
S'#wildlife'
p1077
sI-578
S'#win'
p1078
sI-577
S'#FAV'
p1079
sI-576
S'#Courtesy'
p1080
sI-575
S'#108'
p1081
sI-574
S'#Mission4Joy'
p1082
sI-573
S'#RichSimmonds'
p1083
sI-572
S'#pride'
p1084
sI-571
S'#Orient'
p1085
sI-570
S'#Assad'
p1086
sI-569
S'#Trumps'
p1087
sI-568
S'#Harvard,'
p1088
sI-567
S'#politics'
p1089
sI-566
S'#CabinetReshuffle'
p1090
sI-565
S'#idea'
p1091
sI-564
S'#JohnDiJulius'
p1092
sI-563
S'#Success'
p1093
sI-562
S'#ATMSecurityTips'
p1094
sI-561
S'#BlueLivesMatter'
p1095
sI-560
S'#bear'
p1096
sI-559
S'#animation'
p1097
sI-558
S'#gamemaker'
p1098
sI-557
S'#lasNoches'
p1099
sI-556
S'#sonando'
p1100
sI-555
S'#nowPlaying'
p1101
sI-554
S'#OnlineRadio.'
p1102
sI-553
S'#Gay'
p1103
sI-552
S'#Americ'
p1104
sI-551
S'#Antifa'
p1105
sI-550
S'#SteveMaraboli'
p1106
sI-549
S'#beats'
p1107
sI-548
S'#groups'
p1108
sI-547
S'#facebook'
p1109
sI-546
S'#rappers'
p1110
sI-545
S'#Artist'
p1111
sI-544
S'#Underground'
p1112
sI-543
S'#CheckOut'
p1113
sI-542
S'#mixtape'
p1114
sI-541
S"#HipHop'"
p1115
sI-540
S"'#Minimal"
p1116
sI-539
S'#audiojungle'
p1117
sI-538
S'#classics'
p1118
sI-537
S'#disco'
p1119
sI-536
S'#MayDayStrike'
p1120
sI-535
S'#Mayday'
p1121
sI-534
S'#KVGI'
p1122
sI-533
S'#la'
p1123
sI-532
S'#longbeach'
p1124
sI-531
S'#song'
p1125
sI-530
S'#new'
p1126
sI-529
S'#watch'
p1127
sI-528
S'#like'
p1128
sI-527
S'#repost'
p1129
sI-526
S'#help'
p1130
sI-525
S'#Photo'
p1131
sI-524
S'#Happy'
p1132
sI-523
S'#Libertarians'
p1133
sI-522
S'#Wildlife'
p1134
sI-521
S'#LasVegas'
p1135
sI-520
S'#Dance'
p1136
sI-519
S'#WDP258'
p1137
sI-518
S'#LIVE'
p1138
sI-517
S'#UK'
p1139
sI-516
S'#Historical'
p1140
sI-515
S'#StoryFriday'
p1141
sI-514
S'#coffeelovers'
p1142
sI-513
S'#GirlBoss'
p1143
sI-512
S'#author'
p1144
sI-511
S'PIRATE!#Romance'
p1145
sI-510
S'#pachamama'
p1146
sI-509
S'#MotherEarthDay'
p1147
sI-508
S'#ingodscountry'
p1148
sI-507
S'#u2'
p1149
sI-506
S'#earthday2017'
p1150
sI-505
S'#eventstellar'
p1151
sI-504
S'#picture'
p1152
sI-503
S'#style'
p1153
sI-502
S'#fashion'
p1154
sI-501
S'#celebrities'
p1155
sI-500
S'#celebrity'
p1156
sI-499
S'#russia..'
p1157
sI-498
S'#vocalhouse'
p1158
sI-497
S'#clubhouse'
p1159
sI-496
S'#house'
p1160
sI-495
S'#indiedance'
p1161
sI-494
S'#nudisco'
p1162
sI-493
S'#deep'
p1163
sI-492
S'#deephouse'
p1164
sI-491
S'#Laugh'
p1165
sI-490
S'#Live'
p1166
sI-489
S'#toptwitter'
p1167
sI-488
S'#chistes'
p1168
sI-487
S'#Nobex'
p1169
sI-486
S'#YEG'
p1170
sI-485
S'#geek'
p1171
sI-484
S'#weed'
p1172
sI-483
S'#beer'
p1173
sI-482
S'#humor'
p1174
sI-481
S'#podcasts'
p1175
sI-480
S'#American'
p1176
sI-479
S'#Markets'
p1177
sI-478
S'#travelban'
p1178
sI-477
S'#canqueer'
p1179
sI-476
S'#ableg'
p1180
sI-475
S'#indiegame.'
p1181
sI-474
S'#CardGame.'
p1182
sI-473
S'#Solitaire'
p1183
sI-472
S'#mPLUSRewards'
p1184
sI-471
S'#bands'
p1185
sI-470
S'#onlyrockradio'
p1186
sI-469
S'#Empire'
p1187
sI-468
S'#complaint'
p1188
sI-467
S'#HRW'
p1189
sI-466
S'#BuildThatWall'
p1190
sI-465
S'#TempoRadioMx'
p1191
sI-464
S'#FB'
p1192
sI-463
S'#Facebook'
p1193
sI-462
S'#Follow'
p1194
sI-461
S'#Like'
p1195
sI-460
S'#PokemonGo'
p1196
sI-459
S'#beat'
p1197
sI-458
S'#NeverHillary'
p1198
sI-457
S'#GiveItUpHillary'
p1199
sI-456
S'#ArcticMonkeys'
p1200
sI-455
S'#Cdnpoli'
p1201
sI-454
S'#CCOT'
p1202
sI-453
S'#ObamaGate'
p1203
sI-452
S'#pedogate'
p1204
sI-451
S'#RussiaGate'
p1205
sI-450
S'Mutilation#MAGA'
p1206
sI-449
S'#Business'
p1207
sI-448
S'#designs'
p1208
sI-447
S'#logo'
p1209
sI-446
S'#versatile'
p1210
sI-445
S'#hiphopradio'
p1211
sI-444
S'#rap'
p1212
sI-443
S'#bars'
p1213
sI-442
S'#emcees'
p1214
sI-441
S'#rapbattles'
p1215
sI-440
S'#live'
p1216
sI-439
S'#NYC'
p1217
sI-438
S'#NewZealand'
p1218
sI-437
S'#Paris'
p1219
sI-436
S'#greatreads'
p1220
sI-435
S'#amwriting'
p1221
sI-434
S'#Ireland'
p1222
sI-433
S'#AmericaFirst'
p1223
sI-432
S'#MuslimBan'
p1224
sI-431
S'#politics.'
p1225
sI-430
S'#world'
p1226
sI-429
S'#insight'
p1227
sI-428
S'#Single'
p1228
sI-427
S'#Forgotten80s'
p1229
sI-426
S'#Bristol'
p1230
sI-425
S'#80sChart'
p1231
sI-424
S'#NonStop80s'
p1232
sI-423
S'#ConsciousMusic'
p1233
sI-422
S'#CultureMusic'
p1234
sI-421
S'#ReggaeMusic'
p1235
sI-420
S'#trancefamily'
p1236
sI-419
S'#NowPlaying...'
p1237
sI-418
S'#TrumpRussia,'
p1238
sI-417
S'#Brexit'
p1239
sI-416
S'#MobilizeChico'
p1240
sI-415
S'#1000Christmas'
p1241
sI-414
S'#HappyChristmas'
p1242
sI-413
S'#May'
p1243
sI-412
S'#Magazine'
p1244
sI-411
S'#Music.'
p1245
sI-410
S'#Independent'
p1246
sI-409
S'#positive'
p1247
sI-408
S'#clean'
p1248
sI-407
S'#MusicLov3rz'
p1249
sI-406
S'#LOV3RZ'
p1250
sI-405
S'#jpop'
p1251
sI-404
S'#playingnow'
p1252
sI-403
S'#Disclosure'
p1253
sI-402
S'#heartcountry'
p1254
sI-401
S'#country_France'
p1255
sI-400
S'#countrymusic'
p1256
sI-399
S'#nancy'
p1257
sI-398
S'#country'
p1258
sI-397
S'#The'
p1259
sI-396
S'#GameDev'
p1260
sI-395
S'#Indie'
p1261
sI-394
S'#THERESISTANCE'
p1262
sI-393
S'#RUSSIAGATE'
p1263
sI-392
S'#TRUMPRUSSIA'
p1264
sI-391
S'#IMPEACHTRUMP'
p1265
sI-390
S'#artists'
p1266
sI-389
S'#promo'
p1267
sI-388
S'#SupportIA'
p1268
sI-387
S'#KU'
p1269
sI-386
S'#FREE'
p1270
sI-385
S'#Fullfrequencyradio'
p1271
sI-384
S'#GetTheApp'
p1272
sI-383
S'#streaming'
p1273
sI-382
S'#Gaming'
p1274
sI-381
S'#Jackbox2'
p1275
sI-380
S'#Russiagate'
p1276
sI-379
S'#PUTIN'
p1277
sI-378
S'#Security'
p1278
sI-377
S'#ideas'
p1279
sI-376
S'#advice'
p1280
sI-375
S'#inspiration'
p1281
sI-374
S'#quote'
p1282
sI-373
S'#PetteriTarkkonen'
p1283
sI-372
S'#judge'
p1284
sI-371
S'#Video'
p1285
sI-370
S'#starbucks'
p1286
sI-369
S'#rock'
p1287
sI-368
S'#idol'
p1288
sI-367
S'#anniversary'
p1289
sI-366
S'#70'
p1290
sI-365
S'#otr'
p1291
sI-364
S'#Winnipeg'
p1292
sI-363
S'#TheCure'
p1293
sI-362
S'#LadyGaga'
p1294
sI-361
S'#LGBTQ'
p1295
sI-360
S'#TownHall'
p1296
sI-359
S'#Resist.'
p1297
sI-358
S'#WestCoast'
p1298
sI-357
S'#Purchase'
p1299
sI-356
S'#publishmymusic'
p1300
sI-355
S'#HipHop'
p1301
sI-354
S'#Sessions'
p1302
sI-353
S'#NowPlaying:'
p1303
sI-352
S'#getconnected'
p1304
sI-351
S'#housemusic'
p1305
sI-350
S'#tunein'
p1306
sI-349
S'#Russia,'
p1307
sI-348
S'#NewMusic'
p1308
sI-347
S'#Hot'
p1309
sI-346
S'#Westcoast'
p1310
sI-345
S'#Song'
p1311
sI-344
S'#Buy'
p1312
sI-343
S'#Trap'
p1313
sI-342
S'#Nashville'
p1314
sI-341
S'#Rap'
p1315
sI-340
S'#Hiphop'
p1316
sI-339
S'#Mixtape'
p1317
sI-338
S'#StockMarket'
p1318
sI-337
S'#Mobile'
p1319
sI-336
S'#OneWayRoads'
p1320
sI-335
S'#DoNotEnter'
p1321
sI-334
S'#KnowYourTrafficSigns'
p1322
sI-333
S'#HIPHOP'
p1323
sI-332
S'#IT'
p1324
sI-331
S'#LosAn'
p1325
sI-330
S'#TheBPMStation'
p1326
sI-329
S'#LosAngeles'
p1327
sI-328
S'#funk'
p1328
sI-327
S'#reggae'
p1329
sI-326
S'#DISCO'
p1330
sI-325
S'#bbc6music'
p1331
sI-324
S'#Mexico!'
p1332
sI-323
S'#Politics'
p1333
sI-322
S'#COSProject'
p1334
sI-321
S'#Europe'
p1335
sI-320
S'#European'
p1336
sI-319
S'#Israel'
p1337
sI-318
S'#Palestine'
p1338
sI-317
S'#Hungary'
p1339
sI-316
S'#Bolivia'
p1340
sI-315
S'#RETWEET'
p1341
sI-314
S'#Listen'
p1342
sI-313
S'#games'
p1343
sI-312
S'#gamer'
p1344
sI-311
S'#ebay'
p1345
sI-310
S'#GunLaws'
p1346
sI-309
S'"#France'
p1347
sI-308
S'#trumpr'
p1348
sI-307
S'#foxnews'
p1349
sI-306
S'#tinklegate,'
p1350
sI-305
S'Alchemist)#anime'
p1351
sI-304
S'#thriller'
p1352
sI-303
S'#Obama'
p1353
sI-302
S'#GameAudio'
p1354
sI-301
S"#Trump's"
p1355
sI-300
S"#Syria's"
p1356
sI-299
S'#realmusic'
p1357
sI-298
S'#spotify'
p1358
sI-297
S'#Android'
p1359
sI-296
S'#Now'
p1360
sI-295
S'#Generator'
p1361
sI-294
S'#8ballpool'
p1362
sI-293
S'#feedly'
p1363
sI-292
S'#PLAY'
p1364
sI-291
S'#itechdude'
p1365
sI-290
S'#blog'
p1366
sI-289
S'#technology'
p1367
sI-288
S'#Networking'
p1368
sI-287
S'#ClimateMarch'
p1369
sI-286
S'#NaijaHitsFM'
p1370
sI-285
S'#WePlayNaijaHits'
p1371
sI-284
S'#followback'
p1372
sI-283
S'#flashgame'
p1373
sI-282
S'#free'
p1374
sI-281
S'#AnimalLiberation'
p1375
sI-280
S'#DIgOutYourSoul'
p1376
sI-279
S'#vegan'
p1377
sI-278
S'#EU'
p1378
sI-277
S'#Australia'
p1379
sI-276
S'#WWW.FREQUENCY5FM.COM'
p1380
sI-275
S'#CARPARTS'
p1381
sI-274
S'#NEWS'
p1382
sI-273
S'#Showcase'
p1383
sI-272
S'#Obamacare'
p1384
sI-271
S'#Now4NoisesAppOnGoogle'
p1385
sI-270
S'#BettyWho'
p1386
sI-269
S'#Hendrix'
p1387
sI-268
S'#media'
p1388
sI-267
S'#movie'
p1389
sI-266
S'#Advertising'
p1390
sI-265
S'#video'
p1391
sI-264
S'#sports'
p1392
sI-263
S'#Rock'
p1393
sI-262
S'#Retro'
p1394
sI-261
S'#Vintage'
p1395
sI-260
S'#retrogaming'
p1396
sI-259
S'#Country'
p1397
sI-258
S'"#PresidentTrump'
p1398
sI-257
S'#Love'
p1399
sI-256
S'#Sleep'
p1400
sI-255
S'#Dream'
p1401
sI-254
S'#Smile'
p1402
sI-253
S'#Friends'
p1403
sI-252
S'#angularjs'
p1404
sI-251
S'#fantasy'
p1405
sI-250
S'#gameart'
p1406
sI-249
S'#itchio'
p1407
sI-248
S'#Windows'
p1408
sI-247
S'#DaylightRobbery'
p1409
sI-246
S'#Download'
p1410
sI-245
S'#indiedev'
p1411
sI-244
S'#Gamer'
p1412
sI-243
S'#iOS'
p1413
sI-242
S'#videogame'
p1414
sI-241
S'#madewithunity'
p1415
sI-240
S'#Hacks'
p1416
sI-239
S'#frontlinecommando'
p1417
sI-238
S'#Netflix'
p1418
sI-237
S'#DontheCon'
p1419
sI-236
S'#investigators'
p1420
sI-235
S'#House'
p1421
sI-234
S'#Chechnya'
p1422
sI-233
S'#FastCast4u.com'
p1423
sI-232
S'#FlintWaterCrisis'
p1424
sI-231
S'#SoundCloud?'
p1425
sI-230
S'#funny'
p1426
sI-229
S'#comedy'
p1427
sI-228
S'#podcast'
p1428
sI-227
S'#TuneIn'
p1429
sI-226
S'#TexasCountry'
p1430
sI-225
S"#WHATADIFFERENCEYOU'VEMADEINMYLIFE"
p1431
sI-224
S'#unm'
p1432
sI-223
S'#hemp'
p1433
sI-222
S'#kob4'
p1434
sI-221
S'#hightimes'
p1435
sI-220
S'#dispensary'
p1436
sI-219
S'#marijuana'
p1437
sI-218
S'#cannabis'
p1438
sI-217
S'#CBD'
p1439
sI-216
S'#THC'
p1440
sI-215
S'#trumpru'
p1441
sI-214
S'#Hawaii'
p1442
sI-213
S'#HotVybeRadio.com'
p1443
sI-212
S'#Labour'
p1444
sI-211
S'#brexitelection'
p1445
sI-210
S'#ThingsToBeAsha'
p1446
sI-209
S'#RESIST'
p1447
sI-208
S'#notmypresident'
p1448
sI-207
S'#1000HitsCountry'
p1449
sI-206
S'#russia'
p1450
sI-205
S'#M1uRadio'
p1451
sI-204
S'#FollowFriday'
p1452
sI-203
S'#VoiceofMaui'
p1453
sI-202
S'#economy'
p1454
sI-201
S'#EmergingMarkets'
p1455
sI-200
S'#growth'
p1456
sI-199
S'#GDP'
p1457
sI-198
S'#Irans'
p1458
sI-197
S'#WorldBank'
p1459
sI-196
S'#Maui'
p1460
sI-195
S'#PodernFamily'
p1461
sI-194
S'#NowWatching'
p1462
sI-193
S'#NP'
p1463
sI-192
S'#News'
p1464
sI-191
S'#LGBT'
p1465
sI-190
S'#Iran'
p1466
sI-189
S'#arrested'
p1467
sI-188
S'#Gunshots'
p1468
sI-187
S'#Sweden'
p1469
sI-186
S'#Brexit?'
p1470
sI-185
S'#Logan'
p1471
sI-184
S'#Macron'
p1472
sI-183
S"@TheJusticeDept#Obama's"
p1473
sI-182
S'#Monk'
p1474
sI-181
S'#NoMoreWars'
p1475
sI-180
S'#ASMSG'
p1476
sI-179
S'#IARTG'
p1477
sI-178
S'#tcot'
p1478
sI-177
S'#ayahijazi'
p1479
sI-176
S'#Np'
p1480
sI-175
S'#Trum'
p1481
sI-174
S'#CMW2017'
p1482
sI-173
S'#Canada'
p1483
sI-172
S'#Canada150'
p1484
sI-171
S'#Creative'
p1485
sI-170
S'#hostplease'
p1486
sI-169
S'#gaming'
p1487
sI-168
S'#twitchRT'
p1488
sI-167
S'#FollowTrainTV'
p1489
sI-166
S'#Musicarama'
p1490
sI-165
S'#WeLoveMusic'
p1491
sI-164
S'#support'
p1492
sI-163
S'#:'
p1493
sI-162
S'#TarjaTurunen'
p1494
sI-161
S'#Trump.'
p1495
sI-160
S'#Obama.'
p1496
sI-159
S'#Zen'
p1497
sI-158
S'#ecchi'
p1498
sI-157
S'#hentaiworld'
p1499
sI-156
S'#anime'
p1500
sI-155
S'#election,'
p1501
sI-154
S'#US'
p1502
sI-153
S'#influence'
p1503
sI-152
S'#thinktank'
p1504
sI-151
S'#Russian'
p1505
sI-150
S'#iVoox'
p1506
sI-149
S'#maga'
p1507
sI-148
S'#Takeover'
p1508
sI-147
S'#Chechnya.'
p1509
sI-146
S'#Istandwithtrump'
p1510
sI-145
S'#WeThePeople'
p1511
sI-144
S'#Wisconsin'
p1512
sI-143
S'#trumplies'
p1513
sI-142
S'#trump'
p1514
sI-141
S'#news'
p1515
sI-140
S'#theresistance'
p1516
sI-139
S'#gospelmusic'
p1517
sI-138
S'#concert'
p1518
sI-137
S'#italodisco'
p1519
sI-136
S'#9:'
p1520
sI-135
S'#hiphop'
p1521
sI-134
S'#musicfans'
p1522
sI-133
S'#np'
p1523
sI-132
S'#Spotify'
p1524
sI-131
S'#MUSIC'
p1525
sI-130
S'#RADIO'
p1526
sI-129
S'#FUNK'
p1527
sI-128
S'#NOWPLAYING'
p1528
sI-127
S'#HesMyPresident'
p1529
sI-126
S'#First100Days'
p1530
sI-125
S'#Day92'
p1531
sI-124
S'#artist'
p1532
sI-123
S'#indie'
p1533
sI-122
S'#unsigned'
p1534
sI-121
S'#ArtistRack'
p1535
sI-120
S'#musicvideo'
p1536
sI-119
S'#edm'
p1537
sI-118
S'#game'
p1538
sI-117
S'#wellbeing'
p1539
sI-116
S'#mentalhealth'
p1540
sI-115
S'#gamedesign'
p1541
sI-114
S'#Anxiety'
p1542
sI-113
S'#fun'
p1543
sI-112
S'#cute'
p1544
sI-111
S'#followforfollow'
p1545
sI-110
S'#followmeback'
p1546
sI-109
S'#f4f'
p1547
sI-108
S'#public'
p1548
sI-107
S'#followers'
p1549
sI-106
S'#followme'
p1550
sI-105
S'#follow'
p1551
sI-104
S'#discosdeoro'
p1552
sI-103
S'#80s'
p1553
sI-102
S'#70s'
p1554
sI-101
S'#oldies'
p1555
sI-100
S'#retro'
p1556
sI-99
S'#Escuchando'
p1557
sI-98
S'#pixelart'
p1558
sI-97
S'#indiegame'
p1559
sI-96
S'#gamedev'
p1560
sI-95
S'#PJNET'
p1561
sI-94
S'#Obamagate'
p1562
sI-93
S'#Latin'
p1563
sI-92
S'#4:'
p1564
sI-91
S'#youtube'
p1565
sI-90
S'#gamers'
p1566
sI-89
S'#CGN'
p1567
sI-88
S'#TUGfam'
p1568
sI-87
S'#Trumprussia'
p1569
sI-86
S'#IranDeal'
p1570
sI-85
S'#ScienceMarch'
p1571
sI-84
S'#MarchForScience'
p1572
sI-83
S'#EarthDay'
p1573
sI-82
S'#Syria'
p1574
sI-81
S'#Rashidin'
p1575
sI-80
S'#cnn'
p1576
sI-79
S'#Nowplaying'
p1577
sI-78
S'#TCOT'
p1578
sI-77
S'#Mustang'
p1579
sI-76
S'#resist'
p1580
sI-75
S'#russiagate'
p1581
sI-74
S'#trumprussia'
p1582
sI-73
S'#trumpleaks'
p1583
sI-72
S'#CNN'
p1584
sI-71
S'#popmusic'
p1585
sI-70
S'#Jazz'
p1586
sI-69
S'#RnB'
p1587
sI-68
S'#radio'
p1588
sI-67
S'#Lovesongs'
p1589
sI-66
S'#romance'
p1590
sI-65
S'#music'
p1591
sI-64
S'#USA'
p1592
sI-63
S'#oldradioshow'
p1593
sI-62
S'#listenlive'
p1594
sI-61
S'#y44'
p1595
sI-60
S'#rt'
p1596
sI-59
S'#ngot'
p1597
sI-58
S'#rwsw'
p1598
sI-57
S'#milfmafia'
p1599
sI-56
S'#trndnl'
p1600
sI-55
S'#LivePD'
p1601
sI-54
S'#Bruins'
p1602
sI-53
S'#treason'
p1603
sI-52
S'#jailTrump'
p1604
sI-51
S'#GOP'
p1605
sI-50
S'#ImpeachTrump'
p1606
sI-49
S'#Russia'
p1607
sI-48
S'#WebRadio'
p1608
sI-47
S'#OnAir'
p1609
sI-46
S'#radiostation'
p1610
sI-45
S'#RT'
p1611
sI-44
S'#Win'
p1612
sI-43
S'#Giveaway'
p1613
sI-42
S'#Competition'
p1614
sI-41
S'#Free'
p1615
sI-40
S'#FreebieFriday..'
p1616
sI-39
S'#cubevenue'
p1617
sI-38
S'#TheNational'
p1618
sI-37
S'#CrepesYWaffles'
p1619
sI-36
S'#Nancy_Blues'
p1620
sI-35
S'#Nancy_Jazz'
p1621
sI-34
S'#Lorraine'
p1622
sI-33
S'#Blues'
p1623
sI-32
S'#jazz'
p1624
sI-31
S'#Jazzmusic'
p1625
sI-30
S'#Lionel'
p1626
sI-29
S'#NowPlaying'
p1627
sI-28
S'#TrumpRussia'
p1628
sI-27
S'#Truth'
p1629
sI-26
S'#IHope2017WillBring'
p1630
sI-25
S'#FreeJulian'
p1631
sI-24
S'#Assange'
p1632
sI-23
S'#TRUMP'
p1633
sI-22
S'#beaches,'
p1634
sI-21
S'#island'
p1635
sI-20
S'#tropical'
p1636
sI-19
S'#Japan'
p1637
sI-18
S'#Okinawa,'
p1638
sI-17
S'#liveme'
p1639
sI-16
S'#Music'
p1640
sI-15
S'#GetLit'
p1641
sI-14
S'#HangOutWithMe'
p1642
sI-13
S'#irandeal'
p1643
sI-12
S'#KittenObama'
p1644
sI-11
S'#MAGA'
p1645
sI-10
S'#PEEOTUS'
p1646
sI-9
S'#SCROTUS'
p1647
sI-8
S'#Indivisible'
p1648
sI-7
S'#TheResistance'
p1649
sI-6
S'#Resist'
p1650
sI-5
S'#BLOTUS'
p1651
sI-4
S'#nowplaying'
p1652
sI-3
S'#Congress'
p1653
sI-2
S'#Trump'
p1654
s.