(dp0
I1
c__builtin__
set
p1
((lp2
I-1
atp3
Rp4
sI2
g1
((lp5
I-3
aI-2
atp6
Rp7
sI3
g1
((lp8
I-1
atp9
Rp10
sI4
g1
((lp11
I-4
atp12
Rp13
sI5
g1
((lp14
I-11
aI-10
aI-9
aI-8
aI-7
aI-6
aI-5
atp15
Rp16
sI6
g1
((lp17
I-12
atp18
Rp19
sI7
g1
((lp20
I-13
atp21
Rp22
sI8
g1
((lp23
I-1
atp24
Rp25
sI9
g1
((lp26
I-16
aI-15
aI-14
aI-17
atp27
Rp28
sI10
g1
((lp29
I-22
aI-21
aI-20
aI-19
aI-18
atp30
Rp31
sI11
g1
((lp32
I-23
atp33
Rp34
sI12
g1
((lp35
I-24
aI-27
aI-26
aI-25
atp36
Rp37
sI13
g1
((lp38
I-24
aI-27
aI-26
aI-25
atp39
Rp40
sI14
g1
((lp41
I-4
atp42
Rp43
sI15
g1
((lp44
I-11
aI-10
aI-9
aI-8
aI-7
aI-6
atp45
Rp46
sI16
g1
((lp47
I-24
aI-27
aI-26
aI-25
atp48
Rp49
sI17
g1
((lp50
I-28
atp51
Rp52
sI18
g1
((lp53
I-32
aI-31
aI-30
aI-29
aI-36
aI-35
aI-34
aI-33
atp54
Rp55
sI19
g1
((lp56
I-39
aI-38
aI-37
aI-4
atp57
Rp58
sI20
g1
((lp59
I-45
aI-44
aI-43
aI-42
aI-41
aI-40
atp60
Rp61
sI21
g1
((lp62
I-48
aI-47
aI-46
aI-29
atp63
Rp64
sI22
g1
((lp65
I-53
aI-52
aI-51
aI-50
aI-49
atp66
Rp67
sI23
g1
((lp68
I-56
aI-55
aI-54
aI-1
atp69
Rp70
sI24
g1
((lp71
I-29
atp72
Rp73
sI25
g1
((lp74
I-61
aI-60
aI-59
aI-58
aI-57
atp75
Rp76
sI26
g1
((lp77
I-62
aI-4
atp78
Rp79
sI27
g1
((lp80
I-63
aI-62
aI-4
atp81
Rp82
sI28
g1
((lp83
I-64
aI-4
aI-71
aI-70
aI-69
aI-68
aI-67
aI-66
aI-65
atp84
Rp85
sI29
g1
((lp86
I-72
aI-7
atp87
Rp88
sI30
g1
((lp89
I-76
aI-75
aI-74
aI-73
atp90
Rp91
sI31
g1
((lp92
I-62
aI-77
aI-4
atp93
Rp94
sI32
g1
((lp95
I-78
aI-11
atp96
Rp97
sI33
g1
((lp98
I-79
atp99
Rp100
sI34
g1
((lp101
I-80
aI-28
aI-73
atp102
Rp103
sI35
g1
((lp104
I-24
aI-27
aI-26
aI-25
atp105
Rp106
sI36
g1
((lp107
I-45
aI-82
aI-81
atp108
Rp109
sI37
g1
((lp110
I-74
atp111
Rp112
sI38
g1
((lp113
I-24
aI-27
aI-26
aI-25
atp114
Rp115
sI39
g1
((lp116
I-74
atp117
Rp118
sI40
g1
((lp119
I-76
atp120
Rp121
sI41
g1
((lp122
I-7
aI-85
aI-84
aI-83
atp123
Rp124
sI42
g1
((lp125
I-86
atp126
Rp127
sI43
g1
((lp128
I-87
atp129
Rp130
sI44
g1
((lp131
I-2
atp132
Rp133
sI45
g1
((lp134
I-88
aI-91
aI-90
aI-89
atp135
Rp136
sI46
g1
((lp137
I-1
atp138
Rp139
sI47
g1
((lp140
I-16
aI-93
aI-92
atp141
Rp142
sI48
g1
((lp143
I-28
atp144
Rp145
sI49
g1
((lp146
I-95
aI-94
aI-11
atp147
Rp148
sI50
g1
((lp149
I-24
aI-27
aI-26
aI-25
atp150
Rp151
sI51
g1
((lp152
I-7
aI-28
atp153
Rp154
sI52
g1
((lp155
I-29
atp156
Rp157
sI53
g1
((lp158
I-1
atp159
Rp160
sI54
g1
((lp161
I-29
atp162
Rp163
sI55
g1
((lp164
I-1
atp165
Rp166
sI56
g1
((lp167
I-29
atp168
Rp169
sI57
g1
((lp170
I-96
aI-98
aI-97
atp171
Rp172
sI58
g1
((lp173
I-79
aI-104
aI-103
aI-102
aI-101
aI-100
aI-99
atp174
Rp175
sI59
g1
((lp176
I-87
atp177
Rp178
sI60
g1
((lp179
I-113
aI-112
aI-111
aI-110
aI-109
aI-108
aI-107
aI-106
aI-105
aI-45
atp180
Rp181
sI61
g1
((lp182
I-96
aI-118
aI-117
aI-116
aI-115
aI-114
atp183
Rp184
sI62
g1
((lp185
I-3
aI-2
atp186
Rp187
sI63
g1
((lp188
I-124
aI-123
aI-122
aI-121
aI-120
aI-119
aI-65
atp189
Rp190
sI64
g1
((lp191
I-76
aI-75
aI-74
atp192
Rp193
sI65
g1
((lp194
I-127
aI-126
aI-125
atp195
Rp196
sI66
g1
((lp197
I-1
atp198
Rp199
sI67
g1
((lp200
I-45
atp201
Rp202
sI68
g1
((lp203
I-128
aI-131
aI-130
aI-129
atp204
Rp205
sI69
g1
((lp206
I-135
aI-134
aI-29
aI-132
aI-133
atp207
Rp208
sI70
g1
((lp209
I-96
aI-118
aI-117
aI-116
aI-115
aI-114
atp210
Rp211
sI71
g1
((lp212
I-136
aI-16
aI-93
atp213
Rp214
sI72
g1
((lp215
I-2
atp216
Rp217
sI73
g1
((lp218
I-103
aI-68
aI-4
aI-137
atp219
Rp220
sI74
g1
((lp221
I-138
atp222
Rp223
sI75
g1
((lp224
I-4
aI-139
atp225
Rp226
sI76
g1
((lp227
I-60
aI-143
aI-142
aI-141
aI-140
aI-74
aI-73
aI-76
atp228
Rp229
sI77
g1
((lp230
I-29
atp231
Rp232
sI78
g1
((lp233
I-144
aI-11
aI-145
atp234
Rp235
sI79
g1
((lp236
I-11
aI-146
atp237
Rp238
sI80
g1
((lp239
I-147
atp240
Rp241
sI81
g1
((lp242
I-2
atp243
Rp244
sI82
g1
((lp245
I-148
atp246
Rp247
sI83
g1
((lp248
I-149
atp249
Rp250
sI84
g1
((lp251
I-155
aI-154
aI-153
aI-152
aI-151
aI-150
aI-4
atp252
Rp253
sI85
g1
((lp254
I-75
aI-74
aI-73
atp255
Rp256
sI86
g1
((lp257
I-112
aI-158
aI-157
aI-156
atp258
Rp259
sI87
g1
((lp260
I-160
aI-159
aI-27
aI-161
atp261
Rp262
sI88
g1
((lp263
I-29
aI-164
aI-163
aI-162
atp264
Rp265
sI89
g1
((lp266
I-16
aI-165
aI-29
aI-166
atp267
Rp268
sI90
g1
((lp269
I-168
aI-167
aI-170
aI-169
atp270
Rp271
sI91
g1
((lp272
I-4
atp273
Rp274
sI92
g1
((lp275
I-124
aI-171
aI-65
atp276
Rp277
sI93
g1
((lp278
I-29
atp279
Rp280
sI94
g1
((lp281
I-4
atp282
Rp283
sI95
g1
((lp284
I-173
aI-29
aI-172
aI-174
atp285
Rp286
sI96
g1
((lp287
I-1
atp288
Rp289
sI97
g1
((lp290
I-175
atp291
Rp292
sI98
g1
((lp293
I-176
aI-29
atp294
Rp295
sI99
g1
((lp296
I-29
atp297
Rp298
sI100
g1
((lp299
I-1
aI-177
atp300
Rp301
sI101
g1
((lp302
I-2
aI-11
aI-178
atp303
Rp304
sI102
g1
((lp305
I-29
atp306
Rp307
sI103
g1
((lp308
I-45
aI-180
aI-179
atp309
Rp310
sI104
g1
((lp311
I-181
aI-11
atp312
Rp313
sI105
g1
((lp314
I-60
atp315
Rp316
sI106
g1
((lp317
I-29
atp318
Rp319
sI107
g1
((lp320
I-29
atp321
Rp322
sI108
g1
((lp323
I-182
aI-29
atp324
Rp325
sI109
g1
((lp326
I-184
aI-183
aI-185
atp327
Rp328
sI110
g1
((lp329
I-187
aI-186
atp330
Rp331
sI111
g1
((lp332
I-192
aI-191
aI-190
aI-189
aI-188
atp333
Rp334
sI112
g1
((lp335
I-45
aI-194
aI-193
atp336
Rp337
sI113
g1
((lp338
I-195
atp339
Rp340
sI114
g1
((lp341
I-29
aI-196
atp342
Rp343
sI115
g1
((lp344
I-141
aI-202
aI-201
aI-200
aI-199
aI-198
aI-197
atp345
Rp346
sI116
g1
((lp347
I-4
aI-203
atp348
Rp349
sI117
g1
((lp350
I-29
aI-204
atp351
Rp352
sI118
g1
((lp353
I-29
atp354
Rp355
sI119
g1
((lp356
I-205
aI-29
atp357
Rp358
sI120
g1
((lp359
I-62
aI-4
atp360
Rp361
sI121
g1
((lp362
I-29
atp363
Rp364
sI122
g1
((lp365
I-206
atp366
Rp367
sI123
g1
((lp368
I-4
atp369
Rp370
sI124
g1
((lp371
I-29
atp372
Rp373
sI125
g1
((lp374
I-29
atp375
Rp376
sI126
g1
((lp377
I-207
aI-4
atp378
Rp379
sI127
g1
((lp380
I-16
atp381
Rp382
sI128
g1
((lp383
I-208
aI-87
aI-7
atp384
Rp385
sI129
g1
((lp386
I-29
atp387
Rp388
sI130
g1
((lp389
I-79
atp390
Rp391
sI131
g1
((lp392
I-28
aI-210
aI-209
atp393
Rp394
sI132
g1
((lp395
I-212
aI-211
atp396
Rp397
sI133
g1
((lp398
I-16
aI-213
atp399
Rp400
sI134
g1
((lp401
I-2
atp402
Rp403
sI135
g1
((lp404
I-29
atp405
Rp406
sI136
g1
((lp407
I-214
atp408
Rp409
sI137
g1
((lp410
I-215
atp411
Rp412
sI138
g1
((lp413
I-135
aI-134
aI-29
aI-132
aI-133
atp414
Rp415
sI139
g1
((lp416
I-4
aI-203
atp417
Rp418
sI140
g1
((lp419
I-224
aI-223
aI-222
aI-221
aI-220
aI-219
aI-218
aI-217
aI-216
atp420
Rp421
sI141
g1
((lp422
I-45
atp423
Rp424
sI142
g1
((lp425
I-49
atp426
Rp427
sI143
g1
((lp428
I-29
aI-227
aI-226
aI-225
atp429
Rp430
sI144
g1
((lp431
I-229
aI-141
aI-231
aI-230
aI-133
aI-228
atp432
Rp433
sI145
g1
((lp434
I-232
aI-83
aI-1
atp435
Rp436
sI146
g1
((lp437
I-29
aI-233
atp438
Rp439
sI147
g1
((lp440
I-234
atp441
Rp442
sI148
g1
((lp443
I-224
aI-223
aI-222
aI-221
aI-220
aI-219
aI-218
aI-217
aI-216
atp444
Rp445
sI149
g1
((lp446
I-236
aI-235
aI-49
atp447
Rp448
sI150
g1
((lp449
I-237
atp450
Rp451
sI151
g1
((lp452
I-11
aI-10
aI-9
aI-8
aI-7
aI-6
aI-5
atp453
Rp454
sI152
g1
((lp455
I-238
aI-60
atp456
Rp457
sI153
g1
((lp458
I-246
aI-245
aI-244
aI-243
aI-242
aI-241
aI-240
aI-239
atp459
Rp460
sI154
g1
((lp461
I-247
aI-29
aI-163
atp462
Rp463
sI155
g1
((lp464
I-96
aI-252
aI-251
aI-250
aI-249
aI-248
aI-245
aI-169
aI-97
atp465
Rp466
sI156
g1
((lp467
I-6
atp468
Rp469
sI157
g1
((lp470
I-45
atp471
Rp472
sI158
g1
((lp473
I-29
atp474
Rp475
sI159
g1
((lp476
I-256
aI-255
aI-254
aI-253
aI-45
aI-257
atp477
Rp478
sI160
g1
((lp479
I-45
atp480
Rp481
sI161
g1
((lp482
I-192
atp483
Rp484
sI162
g1
((lp485
I-258
atp486
Rp487
sI163
g1
((lp488
I-144
aI-11
aI-145
atp489
Rp490
sI164
g1
((lp491
I-4
atp492
Rp493
sI165
g1
((lp494
I-4
aI-259
atp495
Rp496
sI166
g1
((lp497
I-260
aI-169
atp498
Rp499
sI167
g1
((lp500
I-96
aI-269
aI-268
aI-267
aI-266
aI-265
aI-264
aI-263
aI-262
aI-261
atp501
Rp502
sI168
g1
((lp503
I-79
aI-270
aI-163
aI-271
atp504
Rp505
sI169
g1
((lp506
I-272
aI-11
aI-2
atp507
Rp508
sI170
g1
((lp509
I-29
aI-273
atp510
Rp511
sI171
g1
((lp512
I-275
aI-274
atp513
Rp514
sI172
g1
((lp515
I-29
aI-276
atp516
Rp517
sI173
g1
((lp518
I-278
aI-277
aI-186
atp519
Rp520
sI174
g1
((lp521
I-75
aI-74
atp522
Rp523
sI175
g1
((lp524
I-280
aI-279
aI-1
aI-281
atp525
Rp526
sI176
g1
((lp527
I-272
aI-11
aI-2
atp528
Rp529
sI177
g1
((lp530
I-1
atp531
Rp532
sI178
g1
((lp533
I-178
atp534
Rp535
sI179
g1
((lp536
I-29
atp537
Rp538
sI180
g1
((lp539
I-11
aI-2
atp540
Rp541
sI181
g1
((lp542
I-24
aI-27
aI-26
aI-25
atp543
Rp544
sI182
g1
((lp545
I-1
atp546
Rp547
sI183
g1
((lp548
I-96
aI-268
aI-267
aI-266
aI-265
aI-264
aI-263
aI-262
aI-261
atp549
Rp550
sI184
g1
((lp551
I-284
aI-60
aI-283
aI-282
atp552
Rp553
sI185
g1
((lp554
I-286
aI-29
aI-227
aI-285
atp555
Rp556
sI186
g1
((lp557
I-7
aI-287
atp558
Rp559
sI187
g1
((lp560
I-11
aI-10
aI-9
aI-8
aI-7
aI-6
atp561
Rp562
sI188
g1
((lp563
I-70
aI-4
atp564
Rp565
sI189
g1
((lp566
I-7
atp567
Rp568
sI190
g1
((lp569
I-141
atp570
Rp571
sI191
g1
((lp572
I-288
aI-141
aI-291
aI-290
aI-289
atp573
Rp574
sI192
g1
((lp575
I-4
atp576
Rp577
sI193
g1
((lp578
I-24
aI-27
aI-26
aI-25
atp579
Rp580
sI194
g1
((lp581
I-29
aI-292
aI-193
atp582
Rp583
sI195
g1
((lp584
I-24
aI-27
aI-26
aI-25
atp585
Rp586
sI196
g1
((lp587
I-141
aI-293
atp588
Rp589
sI197
g1
((lp590
I-90
aI-244
aI-242
aI-297
aI-296
aI-295
aI-294
aI-97
atp591
Rp592
sI198
g1
((lp593
I-29
aI-233
atp594
Rp595
sI199
g1
((lp596
I-135
aI-134
aI-29
aI-299
aI-298
atp597
Rp598
sI200
g1
((lp599
I-4
atp600
Rp601
sI201
g1
((lp602
I-29
atp603
Rp604
sI202
g1
((lp605
I-300
atp606
Rp607
sI203
g1
((lp608
I-1
atp609
Rp610
sI204
g1
((lp611
I-301
aI-11
atp612
Rp613
sI205
g1
((lp614
I-96
aI-302
atp615
Rp616
sI206
g1
((lp617
I-304
aI-303
atp618
Rp619
sI207
g1
((lp620
I-29
aI-193
atp621
Rp622
sI208
g1
((lp623
I-1
atp624
Rp625
sI209
g1
((lp626
I-305
atp627
Rp628
sI210
g1
((lp629
I-7
aI-85
aI-84
aI-83
atp630
Rp631
sI211
g1
((lp632
I-306
aI-1
atp633
Rp634
sI212
g1
((lp635
I-29
atp636
Rp637
sI213
g1
((lp638
I-2
atp639
Rp640
sI214
g1
((lp641
I-7
aI-28
atp642
Rp643
sI215
g1
((lp644
I-306
aI-1
atp645
Rp646
sI216
g1
((lp647
I-141
aI-307
atp648
Rp649
sI217
g1
((lp650
I-308
atp651
Rp652
sI218
g1
((lp653
I-310
aI-309
atp654
Rp655
sI219
g1
((lp656
I-312
aI-311
aI-313
aI-169
atp657
Rp658
sI220
g1
((lp659
I-29
aI-314
atp660
Rp661
sI221
g1
((lp662
I-75
aI-74
aI-73
atp663
Rp664
sI222
g1
((lp665
I-76
atp666
Rp667
sI223
g1
((lp668
I-29
aI-193
atp669
Rp670
sI224
g1
((lp671
I-315
aI-2
aI-11
atp672
Rp673
sI225
g1
((lp674
I-320
aI-319
aI-318
aI-317
aI-316
aI-190
aI-82
aI-321
atp675
Rp676
sI226
g1
((lp677
I-95
aI-78
aI-322
atp678
Rp679
sI227
g1
((lp680
I-323
atp681
Rp682
sI228
g1
((lp683
I-324
atp684
Rp685
sI229
g1
((lp686
I-325
aI-4
atp687
Rp688
sI230
g1
((lp689
I-215
atp690
Rp691
sI231
g1
((lp692
I-11
aI-10
aI-9
aI-8
aI-7
aI-6
aI-5
atp693
Rp694
sI232
g1
((lp695
I-128
aI-326
aI-131
aI-130
atp696
Rp697
sI233
g1
((lp698
I-256
aI-255
aI-254
aI-253
aI-45
aI-257
atp699
Rp700
sI234
g1
((lp701
I-62
aI-4
atp702
Rp703
sI235
g1
((lp704
I-141
atp705
Rp706
sI236
g1
((lp707
I-7
aI-85
aI-84
aI-83
atp708
Rp709
sI237
g1
((lp710
I-328
aI-327
aI-29
aI-135
atp711
Rp712
sI238
g1
((lp713
I-29
aI-331
aI-330
aI-329
atp714
Rp715
sI239
g1
((lp716
I-29
atp717
Rp718
sI240
g1
((lp719
I-29
atp720
Rp721
sI241
g1
((lp722
I-141
aI-332
aI-291
aI-290
aI-289
atp723
Rp724
sI242
g1
((lp725
I-8
aI-7
aI-6
aI-2
atp726
Rp727
sI243
g1
((lp728
I-1
atp729
Rp730
sI244
g1
((lp731
I-288
aI-141
aI-291
aI-290
aI-289
atp732
Rp733
sI245
g1
((lp734
I-333
aI-68
atp735
Rp736
sI246
g1
((lp737
I-24
aI-27
aI-26
aI-25
atp738
Rp739
sI247
g1
((lp740
I-2
atp741
Rp742
sI248
g1
((lp743
I-4
atp744
Rp745
sI249
g1
((lp746
I-190
aI-2
atp747
Rp748
sI250
g1
((lp749
I-24
aI-27
aI-26
aI-25
atp750
Rp751
sI251
g1
((lp752
I-336
aI-335
aI-334
aI-45
atp753
Rp754
sI252
g1
((lp755
I-141
aI-289
aI-291
aI-290
aI-337
atp756
Rp757
sI253
g1
((lp758
I-2
aI-338
atp759
Rp760
sI254
g1
((lp761
I-312
aI-311
aI-313
aI-169
atp762
Rp763
sI255
g1
((lp764
I-87
atp765
Rp766
sI256
g1
((lp767
I-343
aI-342
aI-341
aI-340
aI-339
aI-41
aI-246
atp768
Rp769
sI257
g1
((lp770
I-306
aI-1
atp771
Rp772
sI258
g1
((lp773
I-348
aI-347
aI-346
aI-345
aI-344
aI-340
atp774
Rp775
sI259
g1
((lp776
I-24
aI-27
aI-26
aI-25
atp777
Rp778
sI260
g1
((lp779
I-215
atp780
Rp781
sI261
g1
((lp782
I-349
aI-228
atp783
Rp784
sI262
g1
((lp785
I-352
aI-351
aI-350
aI-4
atp786
Rp787
sI263
g1
((lp788
I-101
aI-65
atp789
Rp790
sI264
g1
((lp791
I-29
aI-314
atp792
Rp793
sI265
g1
((lp794
I-353
atp795
Rp796
sI266
g1
((lp797
I-141
aI-332
aI-291
aI-290
aI-289
atp798
Rp799
sI267
g1
((lp800
I-7
aI-28
atp801
Rp802
sI268
g1
((lp803
I-1
atp804
Rp805
sI269
g1
((lp806
I-312
aI-311
aI-313
aI-169
atp807
Rp808
sI270
g1
((lp809
I-354
atp810
Rp811
sI271
g1
((lp812
I-29
aI-355
atp813
Rp814
sI272
g1
((lp815
I-11
aI-145
atp816
Rp817
sI273
g1
((lp818
I-29
atp819
Rp820
sI274
g1
((lp821
I-356
aI-65
atp822
Rp823
sI275
g1
((lp824
I-178
atp825
Rp826
sI276
g1
((lp827
I-141
aI-289
aI-291
aI-290
aI-337
atp828
Rp829
sI277
g1
((lp830
I-348
aI-344
aI-343
aI-340
aI-358
aI-357
atp831
Rp832
sI278
g1
((lp833
I-360
aI-359
atp834
Rp835
sI279
g1
((lp836
I-361
atp837
Rp838
sI280
g1
((lp839
I-256
aI-255
aI-254
aI-253
aI-45
aI-257
atp840
Rp841
sI281
g1
((lp842
I-2
atp843
Rp844
sI282
g1
((lp845
I-364
aI-363
aI-362
atp846
Rp847
sI283
g1
((lp848
I-365
aI-353
atp849
Rp850
sI284
g1
((lp851
I-62
aI-4
atp852
Rp853
sI285
g1
((lp854
I-4
atp855
Rp856
sI286
g1
((lp857
I-141
aI-289
aI-291
aI-290
aI-337
atp858
Rp859
sI287
g1
((lp860
I-29
atp861
Rp862
sI288
g1
((lp863
I-2
atp864
Rp865
sI289
g1
((lp866
I-312
aI-311
aI-313
aI-169
atp867
Rp868
sI290
g1
((lp869
I-128
atp870
Rp871
sI291
g1
((lp872
I-141
aI-289
aI-291
aI-290
aI-337
atp873
Rp874
sI292
g1
((lp875
I-370
aI-369
aI-368
aI-367
aI-366
aI-65
atp876
Rp877
sI293
g1
((lp878
I-1
atp879
Rp880
sI294
g1
((lp881
I-371
aI-82
atp882
Rp883
sI295
g1
((lp884
I-377
aI-376
aI-375
aI-374
aI-373
aI-372
aI-45
atp885
Rp886
sI296
g1
((lp887
I-291
aI-141
aI-290
aI-378
aI-289
atp888
Rp889
sI297
g1
((lp890
I-23
aI-380
aI-379
aI-7
atp891
Rp892
sI298
g1
((lp893
I-383
aI-382
aI-381
atp894
Rp895
sI299
g1
((lp896
I-384
aI-29
aI-385
atp897
Rp898
sI300
g1
((lp899
I-383
aI-382
aI-381
atp900
Rp901
sI301
g1
((lp902
I-45
aI-388
aI-387
aI-386
atp903
Rp904
sI302
g1
((lp905
I-135
aI-390
aI-389
aI-282
atp906
Rp907
sI303
g1
((lp908
I-135
aI-134
aI-29
aI-132
aI-133
atp909
Rp910
sI304
g1
((lp911
I-392
aI-391
aI-394
aI-393
atp912
Rp913
sI305
g1
((lp914
I-1
atp915
Rp916
sI306
g1
((lp917
I-382
aI-396
aI-395
aI-297
atp918
Rp919
sI307
g1
((lp920
I-29
aI-402
aI-369
aI-400
aI-399
aI-398
aI-397
aI-401
atp921
Rp922
sI308
g1
((lp923
I-4
aI-404
aI-403
atp924
Rp925
sI309
g1
((lp926
I-319
aI-82
atp927
Rp928
sI310
g1
((lp929
I-76
aI-75
aI-74
atp930
Rp931
sI311
g1
((lp932
I-1
atp933
Rp934
sI312
g1
((lp935
I-141
aI-332
aI-291
aI-290
aI-289
atp936
Rp937
sI313
g1
((lp938
I-405
aI-4
atp939
Rp940
sI314
g1
((lp941
I-413
aI-412
aI-411
aI-410
aI-409
aI-408
aI-407
aI-406
atp942
Rp943
sI315
g1
((lp944
I-415
aI-414
aI-4
atp945
Rp946
sI316
g1
((lp947
I-416
aI-6
atp948
Rp949
sI317
g1
((lp950
I-29
atp951
Rp952
sI318
g1
((lp953
I-417
atp954
Rp955
sI319
g1
((lp956
I-418
atp957
Rp958
sI320
g1
((lp959
I-420
aI-419
atp960
Rp961
sI321
g1
((lp962
I-28
atp963
Rp964
sI322
g1
((lp965
I-423
aI-421
aI-29
aI-422
atp966
Rp967
sI323
g1
((lp968
I-424
aI-29
aI-427
aI-426
aI-425
atp969
Rp970
sI324
g1
((lp971
I-348
aI-344
aI-340
aI-428
aI-358
aI-357
atp972
Rp973
sI325
g1
((lp974
I-245
atp975
Rp976
sI326
g1
((lp977
I-263
aI-65
atp978
Rp979
sI327
g1
((lp980
I-431
aI-430
aI-429
atp981
Rp982
sI328
g1
((lp983
I-64
aI-432
aI-11
aI-433
atp984
Rp985
sI329
g1
((lp986
I-437
aI-277
aI-439
aI-438
aI-245
aI-436
aI-435
aI-434
aI-173
atp987
Rp988
sI330
g1
((lp989
I-7
atp990
Rp991
sI331
g1
((lp992
I-445
aI-444
aI-443
aI-442
aI-441
aI-440
aI-135
atp993
Rp994
sI332
g1
((lp995
I-3
aI-2
atp996
Rp997
sI333
g1
((lp998
I-62
aI-4
atp999
Rp1000
sI334
g1
((lp1001
I-448
aI-447
aI-446
aI-45
aI-449
atp1002
Rp1003
sI335
g1
((lp1004
I-433
aI-455
aI-454
aI-453
aI-452
aI-451
aI-450
aI-417
atp1005
Rp1006
sI336
g1
((lp1007
I-456
aI-29
atp1008
Rp1009
sI337
g1
((lp1010
I-1
atp1011
Rp1012
sI338
g1
((lp1013
I-29
atp1014
Rp1015
sI339
g1
((lp1016
I-458
aI-457
atp1017
Rp1018
sI340
g1
((lp1019
I-459
atp1020
Rp1021
sI341
g1
((lp1022
I-142
aI-53
atp1023
Rp1024
sI342
g1
((lp1025
I-24
aI-27
aI-26
aI-25
atp1026
Rp1027
sI343
g1
((lp1028
I-54
aI-1
atp1029
Rp1030
sI344
g1
((lp1031
I-141
aI-332
aI-291
aI-290
aI-289
atp1032
Rp1033
sI345
g1
((lp1034
I-29
atp1035
Rp1036
sI346
g1
((lp1037
I-75
aI-74
aI-73
atp1038
Rp1039
sI347
g1
((lp1040
I-460
atp1041
Rp1042
sI348
g1
((lp1043
I-464
aI-463
aI-462
aI-461
aI-340
atp1044
Rp1045
sI349
g1
((lp1046
I-29
atp1047
Rp1048
sI350
g1
((lp1049
I-465
aI-353
atp1050
Rp1051
sI351
g1
((lp1052
I-11
aI-466
atp1053
Rp1054
sI352
g1
((lp1055
I-149
aI-468
aI-467
atp1056
Rp1057
sI353
g1
((lp1058
I-341
aI-246
aI-469
aI-340
aI-339
aI-41
atp1059
Rp1060
sI354
g1
((lp1061
I-232
aI-83
aI-1
atp1062
Rp1063
sI355
g1
((lp1064
I-389
aI-471
aI-470
aI-390
aI-133
aI-65
atp1065
Rp1066
sI356
g1
((lp1067
I-472
aI-245
aI-475
aI-474
aI-473
atp1068
Rp1069
sI357
g1
((lp1070
I-4
atp1071
Rp1072
sI358
g1
((lp1073
I-29
atp1074
Rp1075
sI359
g1
((lp1076
I-477
aI-476
aI-361
atp1077
Rp1078
sI360
g1
((lp1079
I-95
aI-478
aI-11
atp1080
Rp1081
sI361
g1
((lp1082
I-480
aI-479
aI-2
atp1083
Rp1084
sI362
g1
((lp1085
I-141
aI-289
aI-291
aI-290
aI-337
atp1086
Rp1087
sI363
g1
((lp1088
I-383
aI-484
aI-141
aI-267
aI-264
aI-485
aI-228
aI-483
aI-482
aI-481
atp1089
Rp1090
sI364
g1
((lp1091
I-28
atp1092
Rp1093
sI365
g1
((lp1094
I-383
aI-484
aI-141
aI-267
aI-264
aI-485
aI-228
aI-483
aI-482
aI-481
atp1095
Rp1096
sI366
g1
((lp1097
I-487
aI-486
aI-29
atp1098
Rp1099
sI367
g1
((lp1100
I-29
atp1101
Rp1102
sI368
g1
((lp1103
I-11
aI-10
aI-9
aI-8
aI-7
aI-6
atp1104
Rp1105
sI369
g1
((lp1106
I-306
aI-1
atp1107
Rp1108
sI370
g1
((lp1109
I-4
atp1110
Rp1111
sI371
g1
((lp1112
I-488
aI-60
aI-489
atp1113
Rp1114
sI372
g1
((lp1115
I-413
aI-412
aI-411
aI-410
aI-409
aI-408
aI-407
aI-406
atp1116
Rp1117
sI373
g1
((lp1118
I-255
aI-377
aI-376
aI-375
aI-374
aI-45
aI-491
aI-490
atp1119
Rp1120
sI374
g1
((lp1121
I-499
aI-498
aI-497
aI-496
aI-495
aI-494
aI-493
aI-492
atp1122
Rp1123
sI375
g1
((lp1124
I-504
aI-503
aI-502
aI-501
aI-500
aI-141
atp1125
Rp1126
sI376
g1
((lp1127
I-29
aI-193
atp1128
Rp1129
sI377
g1
((lp1130
I-510
aI-509
aI-508
aI-507
aI-506
aI-505
aI-83
atp1131
Rp1132
sI378
g1
((lp1133
I-24
aI-27
aI-26
aI-25
atp1134
Rp1135
sI379
g1
((lp1136
I-512
aI-511
aI-245
aI-517
aI-516
aI-515
aI-514
aI-513
atp1137
Rp1138
sI380
g1
((lp1139
I-76
aI-75
aI-74
aI-73
atp1140
Rp1141
sI381
g1
((lp1142
I-29
atp1143
Rp1144
sI382
g1
((lp1145
I-520
aI-519
aI-518
aI-29
aI-521
atp1146
Rp1147
sI383
g1
((lp1148
I-522
aI-2
atp1149
Rp1150
sI384
g1
((lp1151
I-523
aI-2
atp1152
Rp1153
sI385
g1
((lp1154
I-256
aI-255
aI-254
aI-253
aI-525
aI-524
aI-45
aI-257
atp1155
Rp1156
sI386
g1
((lp1157
I-29
aI-233
atp1158
Rp1159
sI387
g1
((lp1160
I-60
aI-120
aI-119
aI-533
aI-532
aI-531
aI-530
aI-529
aI-528
aI-527
aI-526
atp1161
Rp1162
sI388
g1
((lp1163
I-534
aI-4
aI-62
atp1164
Rp1165
sI389
g1
((lp1166
I-29
atp1167
Rp1168
sI390
g1
((lp1169
I-536
aI-7
aI-535
atp1170
Rp1171
sI391
g1
((lp1172
I-29
aI-538
aI-537
aI-328
aI-103
aI-68
atp1173
Rp1174
sI392
g1
((lp1175
I-542
aI-541
aI-540
aI-539
atp1176
Rp1177
sI393
g1
((lp1178
I-544
aI-543
aI-340
aI-545
atp1179
Rp1180
sI394
g1
((lp1181
I-135
aI-390
aI-548
aI-547
aI-546
atp1182
Rp1183
sI395
g1
((lp1184
I-141
aI-289
aI-291
aI-290
aI-337
atp1185
Rp1186
sI396
g1
((lp1187
I-135
aI-549
atp1188
Rp1189
sI397
g1
((lp1190
I-2
atp1191
Rp1192
sI398
g1
((lp1193
I-141
aI-289
aI-291
aI-290
aI-337
atp1194
Rp1195
sI399
g1
((lp1196
I-28
atp1197
Rp1198
sI400
g1
((lp1199
I-62
aI-4
atp1200
Rp1201
sI401
g1
((lp1202
I-29
atp1203
Rp1204
sI402
g1
((lp1205
I-375
aI-550
aI-45
aI-374
atp1206
Rp1207
sI403
g1
((lp1208
I-1
atp1209
Rp1210
sI404
g1
((lp1211
I-76
aI-74
aI-73
atp1212
Rp1213
sI405
g1
((lp1214
I-24
aI-27
aI-26
aI-25
atp1215
Rp1216
sI406
g1
((lp1217
I-552
aI-551
atp1218
Rp1219
sI407
g1
((lp1220
I-29
aI-554
aI-553
atp1221
Rp1222
sI408
g1
((lp1223
I-28
atp1224
Rp1225
sI409
g1
((lp1226
I-557
aI-556
aI-555
atp1227
Rp1228
sI410
g1
((lp1229
I-60
atp1230
Rp1231
sI411
g1
((lp1232
I-29
atp1233
Rp1234
sI412
g1
((lp1235
I-192
atp1236
Rp1237
sI413
g1
((lp1238
I-1
atp1239
Rp1240
sI414
g1
((lp1241
I-29
atp1242
Rp1243
sI415
g1
((lp1244
I-234
atp1245
Rp1246
sI416
g1
((lp1247
I-29
atp1248
Rp1249
sI417
g1
((lp1250
I-96
aI-245
aI-560
aI-559
aI-558
aI-98
atp1251
Rp1252
sI418
g1
((lp1253
I-256
aI-255
aI-254
aI-253
aI-45
aI-257
atp1254
Rp1255
sI419
g1
((lp1256
I-7
atp1257
Rp1258
sI420
g1
((lp1259
I-7
atp1260
Rp1261
sI421
g1
((lp1262
I-29
atp1263
Rp1264
sI422
g1
((lp1265
I-29
atp1266
Rp1267
sI423
g1
((lp1268
I-11
aI-561
atp1269
Rp1270
sI424
g1
((lp1271
I-1
atp1272
Rp1273
sI425
g1
((lp1274
I-45
aI-562
atp1275
Rp1276
sI426
g1
((lp1277
I-7
aI-6
atp1278
Rp1279
sI427
g1
((lp1280
I-374
aI-45
aI-564
aI-563
aI-565
atp1281
Rp1282
sI428
g1
((lp1283
I-567
aI-566
atp1284
Rp1285
sI429
g1
((lp1286
I-568
aI-1
atp1287
Rp1288
sI430
g1
((lp1289
I-154
aI-571
aI-82
aI-570
aI-569
atp1290
Rp1291
sI431
g1
((lp1292
I-29
atp1293
Rp1294
sI432
g1
((lp1295
I-374
aI-573
aI-572
aI-45
atp1296
Rp1297
sI433
g1
((lp1298
I-576
aI-575
aI-574
aI-45
aI-577
atp1299
Rp1300
sI434
g1
((lp1301
I-1
atp1302
Rp1303
sI435
g1
((lp1304
I-580
aI-578
aI-42
aI-579
atp1305
Rp1306
sI436
g1
((lp1307
I-1
atp1308
Rp1309
sI437
g1
((lp1310
I-7
aI-581
atp1311
Rp1312
sI438
g1
((lp1313
I-583
aI-582
atp1314
Rp1315
sI439
g1
((lp1316
I-584
aI-2
atp1317
Rp1318
sI440
g1
((lp1319
I-585
atp1320
Rp1321
sI441
g1
((lp1322
I-45
aI-105
atp1323
Rp1324
sI442
g1
((lp1325
I-586
atp1326
Rp1327
sI443
g1
((lp1328
I-175
atp1329
Rp1330
sI444
g1
((lp1331
I-23
aI-592
aI-591
aI-590
aI-589
aI-588
aI-587
atp1332
Rp1333
sI445
g1
((lp1334
I-11
atp1335
Rp1336
sI446
g1
((lp1337
I-1
atp1338
Rp1339
sI447
g1
((lp1340
I-417
atp1341
Rp1342
sI448
g1
((lp1343
I-1
atp1344
Rp1345
sI449
g1
((lp1346
I-348
aI-345
aI-344
aI-343
aI-341
aI-340
aI-357
atp1347
Rp1348
sI450
g1
((lp1349
I-4
aI-593
atp1350
Rp1351
sI451
g1
((lp1352
I-60
atp1353
Rp1354
sI452
g1
((lp1355
I-12
atp1356
Rp1357
sI453
g1
((lp1358
I-594
aI-417
atp1359
Rp1360
sI454
g1
((lp1361
I-597
aI-596
aI-595
atp1362
Rp1363
sI455
g1
((lp1364
I-11
atp1365
Rp1366
sI456
g1
((lp1367
I-600
aI-599
aI-598
aI-142
atp1368
Rp1369
sI457
g1
((lp1370
I-27
atp1371
Rp1372
sI458
g1
((lp1373
I-29
atp1374
Rp1375
sI459
g1
((lp1376
I-141
aI-602
aI-601
atp1377
Rp1378
sI460
g1
((lp1379
I-11
aI-466
atp1380
Rp1381
sI461
g1
((lp1382
I-141
aI-332
aI-291
aI-290
aI-289
atp1383
Rp1384
sI462
g1
((lp1385
I-1
atp1386
Rp1387
sI463
g1
((lp1388
I-51
atp1389
Rp1390
sI464
g1
((lp1391
I-603
aI-82
atp1392
Rp1393
sI465
g1
((lp1394
I-249
atp1395
Rp1396
sI466
g1
((lp1397
I-606
aI-605
aI-604
aI-2
atp1398
Rp1399
sI467
g1
((lp1400
I-1
atp1401
Rp1402
sI468
g1
((lp1403
I-608
aI-607
aI-333
aI-609
atp1404
Rp1405
sI469
g1
((lp1406
I-138
atp1407
Rp1408
sI470
g1
((lp1409
I-29
atp1410
Rp1411
sI471
g1
((lp1412
I-141
aI-612
aI-611
aI-610
aI-219
atp1413
Rp1414
sI472
g1
((lp1415
I-12
atp1416
Rp1417
sI473
g1
((lp1418
I-333
aI-613
atp1419
Rp1420
sI474
g1
((lp1421
I-149
atp1422
Rp1423
sI475
g1
((lp1424
I-28
atp1425
Rp1426
sI476
g1
((lp1427
I-377
aI-376
aI-375
aI-374
aI-45
aI-614
atp1428
Rp1429
sI477
g1
((lp1430
I-1
atp1431
Rp1432
sI478
g1
((lp1433
I-24
aI-27
aI-26
aI-25
atp1434
Rp1435
sI479
g1
((lp1436
I-310
aI-309
atp1437
Rp1438
sI480
g1
((lp1439
I-74
aI-73
atp1440
Rp1441
sI481
g1
((lp1442
I-615
aI-28
aI-451
atp1443
Rp1444
sI482
g1
((lp1445
I-616
aI-96
aI-558
aI-245
atp1446
Rp1447
sI483
g1
((lp1448
I-24
aI-27
aI-26
aI-25
atp1449
Rp1450
sI484
g1
((lp1451
I-288
aI-141
aI-291
aI-290
aI-289
atp1452
Rp1453
sI485
g1
((lp1454
I-141
aI-332
aI-291
aI-290
aI-289
atp1455
Rp1456
sI486
g1
((lp1457
I-28
aI-617
atp1458
Rp1459
sI487
g1
((lp1460
I-45
aI-618
atp1461
Rp1462
sI488
g1
((lp1463
I-45
aI-618
atp1464
Rp1465
sI489
g1
((lp1466
I-45
aI-618
atp1467
Rp1468
sI490
g1
((lp1469
I-24
aI-27
aI-26
aI-25
atp1470
Rp1471
sI491
g1
((lp1472
I-45
aI-618
atp1473
Rp1474
sI492
g1
((lp1475
I-45
aI-618
atp1476
Rp1477
sI493
g1
((lp1478
I-28
atp1479
Rp1480
sI494
g1
((lp1481
I-16
aI-621
aI-620
aI-619
atp1482
Rp1483
sI495
g1
((lp1484
I-246
aI-245
aI-244
aI-243
aI-242
aI-241
aI-240
aI-239
atp1485
Rp1486
sI496
g1
((lp1487
I-627
aI-626
aI-625
aI-624
aI-623
aI-622
aI-141
aI-106
aI-41
atp1488
Rp1489
sI497
g1
((lp1490
I-24
aI-27
aI-26
aI-25
atp1491
Rp1492
sI498
g1
((lp1493
I-631
aI-630
aI-629
aI-628
atp1494
Rp1495
sI499
g1
((lp1496
I-11
atp1497
Rp1498
sI500
g1
((lp1499
I-632
aI-45
atp1500
Rp1501
sI501
g1
((lp1502
I-87
atp1503
Rp1504
sI502
g1
((lp1505
I-96
aI-245
atp1506
Rp1507
sI503
g1
((lp1508
I-542
aI-637
aI-636
aI-635
aI-634
aI-633
aI-282
aI-135
atp1509
Rp1510
sI504
g1
((lp1511
I-90
aI-244
aI-242
aI-297
aI-296
aI-295
aI-294
aI-97
atp1512
Rp1513
sI505
g1
((lp1514
I-45
aI-180
aI-179
atp1515
Rp1516
sI506
g1
((lp1517
I-96
aI-639
aI-638
aI-245
aI-640
aI-97
atp1518
Rp1519
sI507
g1
((lp1520
I-24
aI-27
aI-26
aI-25
atp1521
Rp1522
sI508
g1
((lp1523
I-62
aI-4
atp1524
Rp1525
sI509
g1
((lp1526
I-29
aI-641
atp1527
Rp1528
sI510
g1
((lp1529
I-51
aI-178
aI-11
atp1530
Rp1531
sI511
g1
((lp1532
I-11
atp1533
Rp1534
sI512
g1
((lp1535
I-11
aI-10
aI-9
aI-8
aI-7
aI-6
atp1536
Rp1537
sI513
g1
((lp1538
I-647
aI-646
aI-645
aI-644
aI-643
aI-642
atp1539
Rp1540
sI514
g1
((lp1541
I-24
aI-27
aI-26
aI-25
atp1542
Rp1543
sI515
g1
((lp1544
I-648
aI-169
aI-649
atp1545
Rp1546
sI516
g1
((lp1547
I-1
atp1548
Rp1549
sI517
g1
((lp1550
I-348
aI-345
aI-344
aI-343
aI-340
aI-357
atp1551
Rp1552
sI518
g1
((lp1553
I-7
atp1554
Rp1555
sI519
g1
((lp1556
I-652
aI-75
aI-650
aI-72
aI-7
aI-651
atp1557
Rp1558
sI520
g1
((lp1559
I-360
aI-359
atp1560
Rp1561
sI521
g1
((lp1562
I-655
aI-654
aI-149
aI-653
atp1563
Rp1564
sI522
g1
((lp1565
I-96
aI-245
atp1566
Rp1567
sI523
g1
((lp1568
I-142
aI-75
aI-74
atp1569
Rp1570
sI524
g1
((lp1571
I-11
aI-10
aI-9
aI-8
aI-7
aI-6
aI-5
atp1572
Rp1573
sI525
g1
((lp1574
I-656
aI-660
aI-659
aI-658
aI-657
atp1575
Rp1576
sI526
g1
((lp1577
I-544
aI-661
aI-314
aI-662
aI-469
aI-340
aI-16
atp1578
Rp1579
sI527
g1
((lp1580
I-656
aI-660
aI-659
aI-658
aI-657
atp1581
Rp1582
sI528
g1
((lp1583
I-663
aI-11
aI-2
atp1584
Rp1585
sI529
g1
((lp1586
I-141
aI-289
aI-291
aI-290
aI-337
atp1587
Rp1588
sI530
g1
((lp1589
I-96
aI-250
aI-665
aI-664
aI-245
aI-169
aI-98
aI-97
atp1590
Rp1591
sI531
g1
((lp1592
I-670
aI-669
aI-668
aI-667
aI-282
aI-141
aI-666
atp1593
Rp1594
sI532
g1
((lp1595
I-672
aI-671
aI-169
aI-674
aI-673
atp1596
Rp1597
sI533
g1
((lp1598
I-7
aI-287
atp1599
Rp1600
sI534
g1
((lp1601
I-29
atp1602
Rp1603
sI535
g1
((lp1604
I-675
aI-569
atp1605
Rp1606
sI536
g1
((lp1607
I-677
aI-29
aI-676
atp1608
Rp1609
sI537
g1
((lp1610
I-55
aI-54
aI-678
aI-1
atp1611
Rp1612
sI538
g1
((lp1613
I-75
aI-74
atp1614
Rp1615
sI539
g1
((lp1616
I-29
atp1617
Rp1618
sI540
g1
((lp1619
I-1
atp1620
Rp1621
sI541
g1
((lp1622
I-232
aI-83
aI-1
atp1623
Rp1624
sI542
g1
((lp1625
I-644
atp1626
Rp1627
sI543
g1
((lp1628
I-633
aI-246
aI-341
aI-340
aI-41
aI-679
atp1629
Rp1630
sI544
g1
((lp1631
I-680
aI-683
aI-682
aI-681
atp1632
Rp1633
sI545
g1
((lp1634
I-29
aI-684
atp1635
Rp1636
sI546
g1
((lp1637
I-687
aI-686
aI-685
aI-169
atp1638
Rp1639
sI547
g1
((lp1640
I-62
aI-4
atp1641
Rp1642
sI548
g1
((lp1643
I-692
aI-691
aI-690
aI-689
aI-688
aI-82
atp1644
Rp1645
sI549
g1
((lp1646
I-656
atp1647
Rp1648
sI550
g1
((lp1649
I-377
aI-376
aI-695
aI-694
aI-693
aI-45
aI-375
aI-374
atp1650
Rp1651
sI551
g1
((lp1652
I-141
aI-293
atp1653
Rp1654
sI552
g1
((lp1655
I-4
aI-139
atp1656
Rp1657
sI553
g1
((lp1658
I-256
aI-255
aI-254
aI-253
aI-696
aI-525
aI-45
aI-257
atp1659
Rp1660
sI554
g1
((lp1661
I-65
atp1662
Rp1663
sI555
g1
((lp1664
I-333
aI-609
aI-699
aI-698
aI-697
atp1665
Rp1666
sI556
g1
((lp1667
I-4
atp1668
Rp1669
sI557
g1
((lp1670
I-1
atp1671
Rp1672
sI558
g1
((lp1673
I-348
aI-345
aI-344
aI-340
aI-358
aI-357
atp1674
Rp1675
sI559
g1
((lp1676
I-45
atp1677
Rp1678
sI560
g1
((lp1679
I-16
aI-702
aI-701
aI-700
aI-530
atp1680
Rp1681
sI561
g1
((lp1682
I-192
atp1683
Rp1684
sI562
g1
((lp1685
I-703
aI-4
atp1686
Rp1687
sI563
g1
((lp1688
I-148
atp1689
Rp1690
sI564
g1
((lp1691
I-704
aI-705
atp1692
Rp1693
sI565
g1
((lp1694
I-465
aI-353
atp1695
Rp1696
sI566
g1
((lp1697
I-708
aI-4
aI-707
aI-706
atp1698
Rp1699
sI567
g1
((lp1700
I-24
aI-27
aI-26
aI-25
atp1701
Rp1702
sI568
g1
((lp1703
I-7
aI-6
aI-709
aI-618
atp1704
Rp1705
sI569
g1
((lp1706
I-192
aI-710
atp1707
Rp1708
sI570
g1
((lp1709
I-712
aI-711
aI-82
aI-713
atp1710
Rp1711
sI571
g1
((lp1712
I-192
aI-716
aI-715
aI-714
atp1713
Rp1714
sI572
g1
((lp1715
I-678
aI-1
atp1716
Rp1717
sI573
g1
((lp1718
I-1
atp1719
Rp1720
sI574
g1
((lp1721
I-717
aI-37
aI-4
aI-39
atp1722
Rp1723
sI575
g1
((lp1724
I-82
atp1725
Rp1726
sI576
g1
((lp1727
I-1
atp1728
Rp1729
sI577
g1
((lp1730
I-718
aI-45
atp1731
Rp1732
sI578
g1
((lp1733
I-12
atp1734
Rp1735
sI579
g1
((lp1736
I-720
aI-719
atp1737
Rp1738
sI580
g1
((lp1739
I-7
aI-28
atp1740
Rp1741
sI581
g1
((lp1742
I-45
aI-722
aI-721
atp1743
Rp1744
sI582
g1
((lp1745
I-723
atp1746
Rp1747
sI583
g1
((lp1748
I-726
aI-725
aI-724
atp1749
Rp1750
sI584
g1
((lp1751
I-585
atp1752
Rp1753
sI585
g1
((lp1754
I-4
atp1755
Rp1756
sI586
g1
((lp1757
I-135
aI-134
aI-29
aI-132
aI-133
atp1758
Rp1759
sI587
g1
((lp1760
I-728
aI-727
aI-74
aI-729
atp1761
Rp1762
sI588
g1
((lp1763
I-142
aI-732
aI-731
aI-730
atp1764
Rp1765
sI589
g1
((lp1766
I-8
aI-7
aI-6
aI-9
atp1767
Rp1768
sI590
g1
((lp1769
I-733
aI-29
atp1770
Rp1771
sI591
g1
((lp1772
I-256
aI-255
aI-254
aI-253
aI-45
aI-257
atp1773
Rp1774
sI592
g1
((lp1775
I-4
atp1776
Rp1777
sI593
g1
((lp1778
I-8
aI-87
aI-76
aI-1
aI-9
atp1779
Rp1780
sI594
g1
((lp1781
I-736
aI-735
aI-734
atp1782
Rp1783
sI595
g1
((lp1784
I-4
atp1785
Rp1786
sI596
g1
((lp1787
I-256
aI-255
aI-254
aI-253
aI-45
aI-257
atp1788
Rp1789
sI597
g1
((lp1790
I-82
atp1791
Rp1792
sI598
g1
((lp1793
I-4
aI-738
aI-737
atp1794
Rp1795
sI599
g1
((lp1796
I-24
aI-27
aI-26
aI-25
atp1797
Rp1798
sI600
g1
((lp1799
I-4
aI-739
atp1800
Rp1801
sI601
g1
((lp1802
I-740
atp1803
Rp1804
sI602
g1
((lp1805
I-7
aI-742
aI-741
aI-2
atp1806
Rp1807
sI603
g1
((lp1808
I-1
atp1809
Rp1810
sI604
g1
((lp1811
I-744
aI-743
aI-264
aI-745
atp1812
Rp1813
sI605
g1
((lp1814
I-2
atp1815
Rp1816
sI606
g1
((lp1817
I-7
atp1818
Rp1819
sI607
g1
((lp1820
I-313
aI-746
aI-169
atp1821
Rp1822
sI608
g1
((lp1823
I-749
aI-133
aI-748
aI-747
aI-65
atp1824
Rp1825
sI609
g1
((lp1826
I-750
aI-29
atp1827
Rp1828
sI610
g1
((lp1829
I-29
atp1830
Rp1831
sI611
g1
((lp1832
I-8
aI-7
aI-6
aI-10
aI-9
atp1833
Rp1834
sI612
g1
((lp1835
I-29
atp1836
Rp1837
sI613
g1
((lp1838
I-752
aI-751
aI-453
aI-303
atp1839
Rp1840
sI614
g1
((lp1841
I-192
atp1842
Rp1843
sI615
g1
((lp1844
I-24
aI-27
aI-26
aI-25
atp1845
Rp1846
sI616
g1
((lp1847
I-753
aI-65
aI-409
atp1848
Rp1849
sI617
g1
((lp1850
I-754
aI-2
atp1851
Rp1852
sI618
g1
((lp1853
I-754
aI-2
atp1854
Rp1855
sI619
g1
((lp1856
I-348
aI-633
aI-344
aI-755
aI-428
aI-135
aI-357
atp1857
Rp1858
sI620
g1
((lp1859
I-756
aI-1
atp1860
Rp1861
sI621
g1
((lp1862
I-759
aI-758
aI-757
aI-76
atp1863
Rp1864
sI622
g1
((lp1865
I-753
aI-65
aI-409
atp1866
Rp1867
sI623
g1
((lp1868
I-29
atp1869
Rp1870
sI624
g1
((lp1871
I-169
atp1872
Rp1873
sI625
g1
((lp1874
I-764
aI-763
aI-762
aI-761
aI-760
aI-633
aI-135
aI-549
atp1875
Rp1876
sI626
g1
((lp1877
I-1
atp1878
Rp1879
sI627
g1
((lp1880
I-767
aI-406
aI-765
aI-766
atp1881
Rp1882
sI628
g1
((lp1883
I-24
aI-27
aI-26
aI-25
atp1884
Rp1885
sI629
g1
((lp1886
I-768
aI-11
atp1887
Rp1888
sI630
g1
((lp1889
I-28
atp1890
Rp1891
sI631
g1
((lp1892
I-769
atp1893
Rp1894
sI632
g1
((lp1895
I-444
aI-443
aI-442
aI-441
aI-440
aI-135
atp1896
Rp1897
sI633
g1
((lp1898
I-244
aI-776
aI-775
aI-774
aI-773
aI-772
aI-771
aI-770
atp1899
Rp1900
sI634
g1
((lp1901
I-141
atp1902
Rp1903
sI635
g1
((lp1904
I-29
aI-777
atp1905
Rp1906
sI636
g1
((lp1907
I-65
atp1908
Rp1909
sI637
g1
((lp1910
I-781
aI-780
aI-779
aI-778
atp1911
Rp1912
sI638
g1
((lp1913
I-787
aI-786
aI-785
aI-784
aI-783
aI-782
aI-337
atp1914
Rp1915
sI639
g1
((lp1916
I-24
aI-27
aI-26
aI-25
atp1917
Rp1918
sI640
g1
((lp1919
I-45
aI-788
atp1920
Rp1921
sI641
g1
((lp1922
I-310
aI-309
atp1923
Rp1924
sI642
g1
((lp1925
I-149
aI-789
aI-653
atp1926
Rp1927
sI643
g1
((lp1928
I-791
aI-790
aI-339
aI-546
aI-65
atp1929
Rp1930
sI644
g1
((lp1931
I-1
atp1932
Rp1933
sI645
g1
((lp1934
I-29
atp1935
Rp1936
sI646
g1
((lp1937
I-7
aI-287
atp1938
Rp1939
sI647
g1
((lp1940
I-792
aI-135
aI-29
aI-793
aI-65
atp1941
Rp1942
sI648
g1
((lp1943
I-293
aI-141
aI-794
atp1944
Rp1945
sI649
g1
((lp1946
I-7
atp1947
Rp1948
sI650
g1
((lp1949
I-800
aI-799
aI-798
aI-797
aI-60
aI-795
aI-526
aI-796
aI-164
aI-801
atp1950
Rp1951
sI651
g1
((lp1952
I-232
aI-83
aI-1
atp1953
Rp1954
sI652
g1
((lp1955
I-348
aI-344
aI-343
aI-358
aI-357
aI-355
atp1956
Rp1957
sI653
g1
((lp1958
I-656
aI-803
aI-802
atp1959
Rp1960
sI654
g1
((lp1961
I-72
aI-141
atp1962
Rp1963
sI655
g1
((lp1964
I-804
aI-11
atp1965
Rp1966
sI656
g1
((lp1967
I-232
aI-83
aI-1
atp1968
Rp1969
sI657
g1
((lp1970
I-1
atp1971
Rp1972
sI658
g1
((lp1973
I-135
aI-441
aI-805
aI-282
aI-389
atp1974
Rp1975
sI659
g1
((lp1976
I-24
aI-27
aI-26
aI-25
atp1977
Rp1978
sI660
g1
((lp1979
I-812
aI-811
aI-810
aI-809
aI-808
aI-807
aI-806
aI-65
atp1980
Rp1981
sI661
g1
((lp1982
I-1
atp1983
Rp1984
sI662
g1
((lp1985
I-24
aI-27
aI-26
aI-25
atp1986
Rp1987
sI663
g1
((lp1988
I-815
aI-814
aI-813
atp1989
Rp1990
sI664
g1
((lp1991
I-1
atp1992
Rp1993
sI665
g1
((lp1994
I-1
atp1995
Rp1996
sI666
g1
((lp1997
I-4
atp1998
Rp1999
sI667
g1
((lp2000
I-343
aI-246
aI-340
aI-339
aI-816
aI-41
atp2001
Rp2002
sI668
g1
((lp2003
I-817
atp2004
Rp2005
sI669
g1
((lp2006
I-306
aI-1
atp2007
Rp2008
sI670
g1
((lp2009
I-606
aI-818
atp2010
Rp2011
sI671
g1
((lp2012
I-1
atp2013
Rp2014
sI672
g1
((lp2015
I-4
aI-819
atp2016
Rp2017
sI673
g1
((lp2018
I-820
atp2019
Rp2020
sI674
g1
((lp2021
I-822
aI-821
atp2022
Rp2023
sI675
g1
((lp2024
I-62
aI-4
atp2025
Rp2026
sI676
g1
((lp2027
I-791
aI-790
aI-339
aI-546
aI-65
atp2028
Rp2029
sI677
g1
((lp2030
I-62
aI-4
atp2031
Rp2032
sI678
g1
((lp2033
I-823
aI-49
atp2034
Rp2035
sI679
g1
((lp2036
I-64
aI-824
aI-11
aI-825
atp2037
Rp2038
sI680
g1
((lp2039
I-141
aI-826
atp2040
Rp2041
sI681
g1
((lp2042
I-1
atp2043
Rp2044
sI682
g1
((lp2045
I-29
atp2046
Rp2047
sI683
g1
((lp2048
I-2
aI-827
aI-1
atp2049
Rp2050
sI684
g1
((lp2051
I-1
atp2052
Rp2053
sI685
g1
((lp2054
I-74
atp2055
Rp2056
sI686
g1
((lp2057
I-1
atp2058
Rp2059
sI687
g1
((lp2060
I-828
aI-829
aI-212
aI-323
atp2061
Rp2062
sI688
g1
((lp2063
I-830
aI-45
aI-297
atp2064
Rp2065
sI689
g1
((lp2066
I-128
atp2067
Rp2068
sI690
g1
((lp2069
I-831
aI-4
atp2070
Rp2071
sI691
g1
((lp2072
I-832
aI-833
atp2073
Rp2074
sI692
g1
((lp2075
I-160
aI-159
aI-27
aI-161
atp2076
Rp2077
sI693
g1
((lp2078
I-24
aI-27
aI-26
aI-25
atp2079
Rp2080
sI694
g1
((lp2081
I-312
aI-834
aI-169
atp2082
Rp2083
sI695
g1
((lp2084
I-7
atp2085
Rp2086
sI696
g1
((lp2087
I-2
atp2088
Rp2089
sI697
g1
((lp2090
I-7
aI-28
atp2091
Rp2092
sI698
g1
((lp2093
I-838
aI-837
aI-836
aI-835
aI-178
atp2094
Rp2095
sI699
g1
((lp2096
I-303
aI-95
atp2097
Rp2098
sI700
g1
((lp2099
I-839
aI-76
atp2100
Rp2101
sI701
g1
((lp2102
I-308
atp2103
Rp2104
sI702
g1
((lp2105
I-29
atp2106
Rp2107
sI703
g1
((lp2108
I-840
aI-60
aI-843
aI-842
aI-841
atp2109
Rp2110
sI704
g1
((lp2111
I-4
atp2112
Rp2113
sI705
g1
((lp2114
I-838
aI-837
aI-836
aI-835
aI-178
atp2115
Rp2116
sI706
g1
((lp2117
I-24
aI-27
aI-26
aI-25
atp2118
Rp2119
sI707
g1
((lp2120
I-49
atp2121
Rp2122
sI708
g1
((lp2123
I-76
aI-75
aI-74
atp2124
Rp2125
sI709
g1
((lp2126
I-348
aI-345
aI-344
aI-340
aI-358
aI-357
atp2127
Rp2128
sI710
g1
((lp2129
I-848
aI-847
aI-846
aI-845
aI-844
aI-45
atp2130
Rp2131
sI711
g1
((lp2132
I-4
aI-851
aI-850
aI-849
atp2133
Rp2134
sI712
g1
((lp2135
I-192
atp2136
Rp2137
sI713
g1
((lp2138
I-45
aI-4
atp2139
Rp2140
sI714
g1
((lp2141
I-141
aI-289
aI-291
aI-290
aI-337
atp2142
Rp2143
sI715
g1
((lp2144
I-4
aI-193
atp2145
Rp2146
sI716
g1
((lp2147
I-45
aI-852
aI-578
atp2148
Rp2149
sI717
g1
((lp2150
I-1
atp2151
Rp2152
sI718
g1
((lp2153
I-1
atp2154
Rp2155
sI719
g1
((lp2156
I-1
atp2157
Rp2158
sI720
g1
((lp2159
I-855
aI-854
aI-173
aI-853
aI-49
atp2160
Rp2161
sI721
g1
((lp2162
I-1
atp2163
Rp2164
sI722
g1
((lp2165
I-1
atp2166
Rp2167
sI723
g1
((lp2168
I-1
atp2169
Rp2170
sI724
g1
((lp2171
I-1
atp2172
Rp2173
sI725
g1
((lp2174
I-1
atp2175
Rp2176
sI726
g1
((lp2177
I-1
atp2178
Rp2179
sI727
g1
((lp2180
I-1
atp2181
Rp2182
sI728
g1
((lp2183
I-1
atp2184
Rp2185
sI729
g1
((lp2186
I-856
aI-448
aI-45
aI-449
aI-857
atp2187
Rp2188
sI730
g1
((lp2189
I-792
aI-16
aI-860
aI-859
aI-858
atp2190
Rp2191
sI731
g1
((lp2192
I-1
atp2193
Rp2194
sI732
g1
((lp2195
I-62
aI-4
atp2196
Rp2197
sI733
g1
((lp2198
I-29
atp2199
Rp2200
sI734
g1
((lp2201
I-863
aI-862
aI-861
aI-47
atp2202
Rp2203
sI735
g1
((lp2204
I-24
aI-27
aI-26
aI-25
atp2205
Rp2206
sI736
g1
((lp2207
I-864
aI-23
aI-869
aI-868
aI-867
aI-866
aI-865
atp2208
Rp2209
sI737
g1
((lp2210
I-24
aI-27
aI-26
aI-25
atp2211
Rp2212
sI738
g1
((lp2213
I-24
aI-27
aI-26
aI-25
atp2214
Rp2215
sI739
g1
((lp2216
I-791
aI-790
aI-339
aI-546
aI-65
atp2217
Rp2218
sI740
g1
((lp2219
I-2
atp2220
Rp2221
sI741
g1
((lp2222
I-361
atp2223
Rp2224
sI742
g1
((lp2225
I-60
aI-875
aI-874
aI-873
aI-872
aI-871
aI-870
atp2226
Rp2227
sI743
g1
((lp2228
I-29
aI-876
atp2229
Rp2230
sI744
g1
((lp2231
I-300
atp2232
Rp2233
sI745
g1
((lp2234
I-24
aI-27
aI-26
aI-25
atp2235
Rp2236
sI746
g1
((lp2237
I-291
aI-141
aI-290
aI-378
aI-289
atp2238
Rp2239
sI747
g1
((lp2240
I-877
aI-154
aI-82
atp2241
Rp2242
sI748
g1
((lp2243
I-11
atp2244
Rp2245
sI749
g1
((lp2246
I-510
aI-509
aI-508
aI-507
aI-506
aI-505
aI-83
atp2247
Rp2248
sI750
g1
((lp2249
I-879
aI-878
aI-851
aI-65
atp2250
Rp2251
sI751
g1
((lp2252
I-880
aI-7
aI-506
atp2253
Rp2254
sI752
g1
((lp2255
I-410
aI-409
aI-408
aI-407
aI-406
aI-881
aI-16
atp2256
Rp2257
sI753
g1
((lp2258
I-45
aI-852
aI-578
atp2259
Rp2260
sI754
g1
((lp2261
I-883
aI-882
atp2262
Rp2263
sI755
g1
((lp2264
I-1
atp2265
Rp2266
sI756
g1
((lp2267
I-4
atp2268
Rp2269
sI757
g1
((lp2270
I-29
atp2271
Rp2272
sI758
g1
((lp2273
I-884
aI-4
atp2274
Rp2275
sI759
g1
((lp2276
I-3
aI-2
atp2277
Rp2278
sI760
g1
((lp2279
I-552
aI-551
atp2280
Rp2281
sI761
g1
((lp2282
I-256
aI-255
aI-254
aI-253
aI-525
aI-45
aI-257
atp2283
Rp2284
sI762
g1
((lp2285
I-24
aI-27
aI-26
aI-25
atp2286
Rp2287
sI763
g1
((lp2288
I-1
atp2289
Rp2290
sI764
g1
((lp2291
I-769
atp2292
Rp2293
sI765
g1
((lp2294
I-29
atp2295
Rp2296
sI766
g1
((lp2297
I-887
aI-886
aI-29
aI-885
aI-677
atp2298
Rp2299
sI767
g1
((lp2300
I-831
aI-4
atp2301
Rp2302
sI768
g1
((lp2303
I-888
aI-543
aI-755
aI-355
aI-343
atp2304
Rp2305
sI769
g1
((lp2306
I-551
aI-1
atp2307
Rp2308
sI770
g1
((lp2309
I-29
atp2310
Rp2311
sI771
g1
((lp2312
I-892
aI-891
aI-890
aI-889
aI-530
aI-369
aI-45
atp2313
Rp2314
sI772
g1
((lp2315
I-95
aI-11
atp2316
Rp2317
sI773
g1
((lp2318
I-175
atp2319
Rp2320
sI774
g1
((lp2321
I-893
aI-410
aI-409
aI-408
aI-407
aI-406
aI-16
atp2322
Rp2323
sI775
g1
((lp2324
I-215
atp2325
Rp2326
sI776
g1
((lp2327
I-894
aI-82
atp2328
Rp2329
sI777
g1
((lp2330
I-7
aI-287
atp2331
Rp2332
sI778
g1
((lp2333
I-312
atp2334
Rp2335
sI779
g1
((lp2336
I-896
aI-895
aI-353
atp2337
Rp2338
sI780
g1
((lp2339
I-11
aI-618
atp2340
Rp2341
sI781
g1
((lp2342
I-45
aI-618
atp2343
Rp2344
sI782
g1
((lp2345
I-1
aI-897
atp2346
Rp2347
sI783
g1
((lp2348
I-382
atp2349
Rp2350
sI784
g1
((lp2351
I-1
aI-177
atp2352
Rp2353
sI785
g1
((lp2354
I-60
aI-898
aI-106
aI-899
atp2355
Rp2356
sI786
g1
((lp2357
I-160
aI-159
aI-27
aI-161
atp2358
Rp2359
sI787
g1
((lp2360
I-29
atp2361
Rp2362
sI788
g1
((lp2363
I-45
aI-44
aI-43
aI-42
aI-41
aI-40
atp2364
Rp2365
sI789
g1
((lp2366
I-361
atp2367
Rp2368
sI790
g1
((lp2369
I-24
aI-27
aI-26
aI-25
atp2370
Rp2371
sI791
g1
((lp2372
I-11
atp2373
Rp2374
sI792
g1
((lp2375
I-634
aI-339
aI-135
aI-549
aI-900
aI-65
atp2376
Rp2377
sI793
g1
((lp2378
I-1
atp2379
Rp2380
sI794
g1
((lp2381
I-7
aI-901
atp2382
Rp2383
sI795
g1
((lp2384
I-24
aI-27
aI-26
aI-25
atp2385
Rp2386
sI796
g1
((lp2387
I-903
aI-902
aI-29
atp2388
Rp2389
sI797
g1
((lp2390
I-904
aI-1
atp2391
Rp2392
sI798
g1
((lp2393
I-905
atp2394
Rp2395
sI799
g1
((lp2396
I-28
aI-907
aI-906
atp2397
Rp2398
sI800
g1
((lp2399
I-55
aI-908
aI-1
atp2400
Rp2401
sI801
g1
((lp2402
I-2
atp2403
Rp2404
sI802
g1
((lp2405
I-12
atp2406
Rp2407
sI803
g1
((lp2408
I-909
aI-396
atp2409
Rp2410
sI804
g1
((lp2411
I-76
atp2412
Rp2413
sI805
g1
((lp2414
I-910
aI-4
atp2415
Rp2416
sI806
g1
((lp2417
I-911
aI-417
atp2418
Rp2419
sI807
g1
((lp2420
I-912
aI-6
aI-914
aI-913
atp2421
Rp2422
sI808
g1
((lp2423
I-76
aI-915
atp2424
Rp2425
sI809
g1
((lp2426
I-75
aI-74
aI-73
atp2427
Rp2428
sI810
g1
((lp2429
I-11
atp2430
Rp2431
sI811
g1
((lp2432
I-245
atp2433
Rp2434
sI812
g1
((lp2435
I-574
aI-917
aI-916
aI-45
aI-577
atp2436
Rp2437
sI813
g1
((lp2438
I-76
aI-75
aI-74
atp2439
Rp2440
sI814
g1
((lp2441
I-28
atp2442
Rp2443
sI815
g1
((lp2444
I-151
aI-675
aI-2
atp2445
Rp2446
sI816
g1
((lp2447
I-245
atp2448
Rp2449
sI817
g1
((lp2450
I-11
atp2451
Rp2452
sI818
g1
((lp2453
I-141
atp2454
Rp2455
sI819
g1
((lp2456
I-767
aI-406
aI-765
aI-766
atp2457
Rp2458
sI820
g1
((lp2459
I-415
aI-414
aI-4
atp2460
Rp2461
sI821
g1
((lp2462
I-1
atp2463
Rp2464
sI822
g1
((lp2465
I-61
aI-60
aI-59
aI-58
aI-57
atp2466
Rp2467
sI823
g1
((lp2468
I-282
aI-920
aI-919
aI-918
aI-462
aI-45
aI-44
atp2469
Rp2470
sI824
g1
((lp2471
I-82
atp2472
Rp2473
sI825
g1
((lp2474
I-7
aI-28
atp2475
Rp2476
sI826
g1
((lp2477
I-75
aI-74
aI-73
atp2478
Rp2479
sI827
g1
((lp2480
I-303
aI-230
aI-923
aI-922
aI-921
atp2481
Rp2482
sI828
g1
((lp2483
I-29
atp2484
Rp2485
sI829
g1
((lp2486
I-24
aI-27
aI-26
aI-25
atp2487
Rp2488
sI830
g1
((lp2489
I-924
atp2490
Rp2491
sI831
g1
((lp2492
I-926
aI-925
aI-178
atp2493
Rp2494
sI832
g1
((lp2495
I-927
atp2496
Rp2497
sI833
g1
((lp2498
I-928
aI-60
aI-931
aI-930
aI-929
atp2499
Rp2500
sI834
g1
((lp2501
I-96
aI-933
aI-932
atp2502
Rp2503
sI835
g1
((lp2504
I-141
atp2505
Rp2506
sI836
g1
((lp2507
I-942
aI-941
aI-940
aI-939
aI-938
aI-937
aI-936
aI-935
aI-934
atp2508
Rp2509
sI837
g1
((lp2510
I-291
aI-141
aI-290
aI-378
aI-289
atp2511
Rp2512
sI838
g1
((lp2513
I-179
aI-944
aI-943
aI-45
aI-387
aI-386
atp2514
Rp2515
sI839
g1
((lp2516
I-24
aI-27
aI-26
aI-25
atp2517
Rp2518
sI840
g1
((lp2519
I-2
atp2520
Rp2521
sI841
g1
((lp2522
I-1
atp2523
Rp2524
sI842
g1
((lp2525
I-492
aI-493
aI-4
aI-351
atp2526
Rp2527
sI843
g1
((lp2528
I-232
aI-83
aI-1
atp2529
Rp2530
sI844
g1
((lp2531
I-2
atp2532
Rp2533
sI845
g1
((lp2534
I-29
aI-947
aI-946
aI-945
aI-45
aI-549
atp2535
Rp2536
sI846
g1
((lp2537
I-1
atp2538
Rp2539
sI847
g1
((lp2540
I-65
aI-41
atp2541
Rp2542
sI848
g1
((lp2543
I-7
atp2544
Rp2545
sI849
g1
((lp2546
I-767
aI-406
aI-765
aI-766
atp2547
Rp2548
sI850
g1
((lp2549
I-792
aI-16
aI-860
aI-859
aI-858
atp2550
Rp2551
sI851
g1
((lp2552
I-7
aI-287
atp2553
Rp2554
sI852
g1
((lp2555
I-29
atp2556
Rp2557
sI853
g1
((lp2558
I-87
atp2559
Rp2560
sI854
g1
((lp2561
I-348
aI-344
aI-343
aI-340
aI-358
aI-357
atp2562
Rp2563
sI855
g1
((lp2564
I-949
aI-341
aI-948
aI-339
aI-29
aI-358
atp2565
Rp2566
sI856
g1
((lp2567
I-29
atp2568
Rp2569
sI857
g1
((lp2570
I-24
aI-27
aI-26
aI-25
atp2571
Rp2572
sI858
g1
((lp2573
I-76
aI-74
aI-73
atp2574
Rp2575
sI859
g1
((lp2576
I-24
aI-27
aI-26
aI-25
atp2577
Rp2578
sI860
g1
((lp2579
I-11
atp2580
Rp2581
sI861
g1
((lp2582
I-950
aI-2
atp2583
Rp2584
sI862
g1
((lp2585
I-951
aI-258
atp2586
Rp2587
sI863
g1
((lp2588
I-24
aI-27
aI-26
aI-25
atp2589
Rp2590
sI864
g1
((lp2591
I-952
aI-29
atp2592
Rp2593
sI865
g1
((lp2594
I-29
aI-953
atp2595
Rp2596
sI866
g1
((lp2597
I-954
aI-178
atp2598
Rp2599
sI867
g1
((lp2600
I-232
aI-83
aI-1
atp2601
Rp2602
sI868
g1
((lp2603
I-24
aI-27
aI-26
aI-25
atp2604
Rp2605
sI869
g1
((lp2606
I-65
atp2607
Rp2608
sI870
g1
((lp2609
I-956
aI-350
aI-4
aI-955
atp2610
Rp2611
sI871
g1
((lp2612
I-3
aI-2
atp2613
Rp2614
sI872
g1
((lp2615
I-96
aI-958
aI-957
atp2616
Rp2617
sI873
g1
((lp2618
I-96
aI-245
atp2619
Rp2620
sI874
g1
((lp2621
I-29
atp2622
Rp2623
sI875
g1
((lp2624
I-96
aI-268
aI-267
aI-266
aI-265
aI-264
aI-263
aI-262
aI-261
atp2625
Rp2626
sI876
g1
((lp2627
I-959
atp2628
Rp2629
sI877
g1
((lp2630
I-141
aI-49
atp2631
Rp2632
sI878
g1
((lp2633
I-96
aI-118
aI-117
aI-116
aI-115
aI-114
atp2634
Rp2635
sI879
g1
((lp2636
I-7
aI-28
atp2637
Rp2638
sI880
g1
((lp2639
I-3
aI-2
atp2640
Rp2641
sI881
g1
((lp2642
I-12
atp2643
Rp2644
sI882
g1
((lp2645
I-960
aI-29
aI-962
aI-961
atp2646
Rp2647
sI883
g1
((lp2648
I-29
aI-964
aI-963
atp2649
Rp2650
sI884
g1
((lp2651
I-966
aI-965
aI-4
atp2652
Rp2653
sI885
g1
((lp2654
I-246
aI-341
aI-340
aI-339
aI-41
aI-967
atp2655
Rp2656
sI886
g1
((lp2657
I-96
aI-245
aI-970
aI-969
aI-968
aI-97
atp2658
Rp2659
sI887
g1
((lp2660
I-29
atp2661
Rp2662
sI888
g1
((lp2663
I-1
atp2664
Rp2665
sI889
g1
((lp2666
I-971
aI-65
atp2667
Rp2668
sI890
g1
((lp2669
I-128
atp2670
Rp2671
sI891
g1
((lp2672
I-214
atp2673
Rp2674
sI892
g1
((lp2675
I-28
atp2676
Rp2677
sI893
g1
((lp2678
I-96
aI-972
atp2679
Rp2680
sI894
g1
((lp2681
I-96
aI-250
aI-665
aI-664
aI-245
aI-169
aI-98
aI-97
atp2682
Rp2683
sI895
g1
((lp2684
I-7
atp2685
Rp2686
sI896
g1
((lp2687
I-1
atp2688
Rp2689
sI897
g1
((lp2690
I-472
aI-245
aI-475
aI-474
aI-473
atp2691
Rp2692
sI898
g1
((lp2693
I-45
aI-974
aI-973
aI-282
atp2694
Rp2695
sI899
g1
((lp2696
I-975
aI-11
aI-178
atp2697
Rp2698
sI900
g1
((lp2699
I-76
aI-915
atp2700
Rp2701
sI901
g1
((lp2702
I-976
aI-549
aI-355
atp2703
Rp2704
sI902
g1
((lp2705
I-437
aI-277
aI-439
aI-438
aI-245
aI-436
aI-435
aI-434
aI-173
atp2706
Rp2707
sI903
g1
((lp2708
I-24
aI-27
aI-26
aI-25
atp2709
Rp2710
sI904
g1
((lp2711
I-29
aI-227
atp2712
Rp2713
sI905
g1
((lp2714
I-74
atp2715
Rp2716
sI906
g1
((lp2717
I-24
aI-27
aI-26
aI-25
atp2718
Rp2719
sI907
g1
((lp2720
I-977
aI-29
aI-945
atp2721
Rp2722
sI908
g1
((lp2723
I-2
atp2724
Rp2725
sI909
g1
((lp2726
I-11
atp2727
Rp2728
sI910
g1
((lp2729
I-767
aI-406
aI-765
aI-766
atp2730
Rp2731
sI911
g1
((lp2732
I-90
aI-244
aI-242
aI-297
aI-296
aI-295
aI-294
aI-97
atp2733
Rp2734
sI912
g1
((lp2735
I-133
aI-68
aI-955
aI-65
atp2736
Rp2737
sI913
g1
((lp2738
I-353
atp2739
Rp2740
sI914
g1
((lp2741
I-588
aI-11
aI-978
atp2742
Rp2743
sI915
g1
((lp2744
I-979
aI-2
atp2745
Rp2746
sI916
g1
((lp2747
I-68
aI-980
aI-764
aI-863
aI-353
atp2748
Rp2749
sI917
g1
((lp2750
I-981
aI-29
atp2751
Rp2752
sI918
g1
((lp2753
I-24
aI-27
aI-26
aI-25
atp2754
Rp2755
sI919
g1
((lp2756
I-4
atp2757
Rp2758
sI920
g1
((lp2759
I-62
aI-4
atp2760
Rp2761
sI921
g1
((lp2762
I-175
atp2763
Rp2764
sI922
g1
((lp2765
I-28
atp2766
Rp2767
sI923
g1
((lp2768
I-45
aI-180
aI-179
atp2769
Rp2770
sI924
g1
((lp2771
I-985
aI-984
aI-983
aI-982
aI-433
aI-11
atp2772
Rp2773
sI925
g1
((lp2774
I-29
atp2775
Rp2776
sI926
g1
((lp2777
I-192
aI-986
atp2778
Rp2779
sI927
g1
((lp2780
I-11
aI-10
aI-9
aI-8
aI-7
aI-6
aI-5
atp2781
Rp2782
sI928
g1
((lp2783
I-45
aI-988
aI-987
atp2784
Rp2785
sI929
g1
((lp2786
I-989
aI-29
aI-314
atp2787
Rp2788
sI930
g1
((lp2789
I-192
aI-986
atp2790
Rp2791
sI931
g1
((lp2792
I-1
atp2793
Rp2794
sI932
g1
((lp2795
I-767
aI-406
aI-765
aI-766
atp2796
Rp2797
sI933
g1
((lp2798
I-192
aI-986
atp2799
Rp2800
sI934
g1
((lp2801
I-1
atp2802
Rp2803
sI935
g1
((lp2804
I-992
aI-991
aI-990
aI-995
aI-994
aI-993
atp2805
Rp2806
sI936
g1
((lp2807
I-24
aI-27
aI-26
aI-25
atp2808
Rp2809
sI937
g1
((lp2810
I-997
aI-996
aI-169
atp2811
Rp2812
sI938
g1
((lp2813
I-1000
aI-999
aI-998
aI-2
atp2814
Rp2815
sI939
g1
((lp2816
I-45
aI-988
aI-987
atp2817
Rp2818
sI940
g1
((lp2819
I-11
aI-10
aI-9
aI-8
aI-7
aI-6
atp2820
Rp2821
sI941
g1
((lp2822
I-29
aI-440
aI-1004
aI-1003
aI-1002
aI-1001
aI-65
atp2823
Rp2824
sI942
g1
((lp2825
I-24
aI-27
aI-26
aI-25
atp2826
Rp2827
sI943
g1
((lp2828
I-520
aI-903
aI-29
atp2829
Rp2830
sI944
g1
((lp2831
I-4
atp2832
Rp2833
sI945
g1
((lp2834
I-274
atp2835
Rp2836
sI946
g1
((lp2837
I-274
atp2838
Rp2839
sI947
g1
((lp2840
I-536
aI-7
aI-535
atp2841
Rp2842
sI948
g1
((lp2843
I-1005
aI-29
aI-314
atp2844
Rp2845
sI949
g1
((lp2846
I-29
atp2847
Rp2848
sI950
g1
((lp2849
I-274
atp2850
Rp2851
sI951
g1
((lp2852
I-215
atp2853
Rp2854
sI952
g1
((lp2855
I-28
atp2856
Rp2857
sI953
g1
((lp2858
I-1007
aI-1006
aI-245
aI-638
atp2859
Rp2860
sI954
g1
((lp2861
I-29
atp2862
Rp2863
sI955
g1
((lp2864
I-160
aI-159
aI-27
aI-161
atp2865
Rp2866
sI956
g1
((lp2867
I-45
atp2868
Rp2869
sI957
g1
((lp2870
I-1008
aI-11
aI-1009
atp2871
Rp2872
sI958
g1
((lp2873
I-29
atp2874
Rp2875
sI959
g1
((lp2876
I-45
atp2877
Rp2878
sI960
g1
((lp2879
I-29
aI-1004
atp2880
Rp2881
sI961
g1
((lp2882
I-29
atp2883
Rp2884
sI962
g1
((lp2885
I-29
atp2886
Rp2887
sI963
g1
((lp2888
I-29
atp2889
Rp2890
sI964
g1
((lp2891
I-29
atp2892
Rp2893
sI965
g1
((lp2894
I-997
aI-996
aI-169
atp2895
Rp2896
sI966
g1
((lp2897
I-28
aI-1013
aI-1012
aI-1011
aI-1010
aI-451
atp2898
Rp2899
sI967
g1
((lp2900
I-29
aI-641
atp2901
Rp2902
sI968
g1
((lp2903
I-1018
aI-1017
aI-1016
aI-1015
aI-1014
aI-921
aI-45
aI-105
atp2904
Rp2905
sI969
g1
((lp2906
I-29
atp2907
Rp2908
sI970
g1
((lp2909
I-119
aI-1021
aI-1020
aI-1019
aI-65
atp2910
Rp2911
sI971
g1
((lp2912
I-1023
aI-1022
aI-51
atp2913
Rp2914
sI972
g1
((lp2915
I-7
atp2916
Rp2917
sI973
g1
((lp2918
I-1024
aI-2
atp2919
Rp2920
sI974
g1
((lp2921
I-767
aI-406
aI-765
aI-766
atp2922
Rp2923
sI975
g1
((lp2924
I-29
atp2925
Rp2926
sI976
g1
((lp2927
I-354
atp2928
Rp2929
sI977
g1
((lp2930
I-74
aI-1025
atp2931
Rp2932
sI978
g1
((lp2933
I-60
atp2934
Rp2935
sI979
g1
((lp2936
I-274
atp2937
Rp2938
sI980
g1
((lp2939
I-879
aI-878
aI-851
aI-65
atp2940
Rp2941
sI981
g1
((lp2942
I-39
aI-4
aI-1027
aI-1026
atp2943
Rp2944
sI982
g1
((lp2945
I-76
aI-1029
aI-1028
atp2946
Rp2947
sI983
g1
((lp2948
I-142
atp2949
Rp2950
sI984
g1
((lp2951
I-1
atp2952
Rp2953
sI985
g1
((lp2954
I-29
atp2955
Rp2956
sI986
g1
((lp2957
I-552
aI-551
atp2958
Rp2959
sI987
g1
((lp2960
I-29
aI-227
atp2961
Rp2962
sI988
g1
((lp2963
I-1
atp2964
Rp2965
sI989
g1
((lp2966
I-1030
aI-11
atp2967
Rp2968
sI990
g1
((lp2969
I-997
aI-996
aI-169
atp2970
Rp2971
sI991
g1
((lp2972
I-3
aI-2
atp2973
Rp2974
sI992
g1
((lp2975
I-1032
aI-1031
aI-1035
aI-1034
aI-1033
atp2976
Rp2977
sI993
g1
((lp2978
I-1
atp2979
Rp2980
sI994
g1
((lp2981
I-1
atp2982
Rp2983
sI995
g1
((lp2984
I-1037
aI-1036
atp2985
Rp2986
sI996
g1
((lp2987
I-214
atp2988
Rp2989
sI997
g1
((lp2990
I-1
atp2991
Rp2992
sI998
g1
((lp2993
I-24
aI-27
aI-26
aI-25
atp2994
Rp2995
sI999
g1
((lp2996
I-1
atp2997
Rp2998
sI1000
g1
((lp2999
I-1039
aI-1038
atp3000
Rp3001
sI1001
g1
((lp3002
I-245
aI-1044
aI-115
aI-1042
aI-1041
aI-1040
aI-1043
aI-97
atp3003
Rp3004
sI1002
g1
((lp3005
I-1045
atp3006
Rp3007
sI1003
g1
((lp3008
I-192
aI-986
atp3009
Rp3010
sI1004
g1
((lp3011
I-767
aI-406
aI-765
aI-766
atp3012
Rp3013
sI1005
g1
((lp3014
I-29
atp3015
Rp3016
sI1006
g1
((lp3017
I-789
aI-76
aI-73
atp3018
Rp3019
sI1007
g1
((lp3020
I-192
atp3021
Rp3022
sI1008
g1
((lp3023
I-29
atp3024
Rp3025
sI1009
g1
((lp3026
I-1046
aI-65
atp3027
Rp3028
sI1010
g1
((lp3029
I-29
aI-1004
atp3030
Rp3031
sI1011
g1
((lp3032
I-147
atp3033
Rp3034
sI1012
g1
((lp3035
I-303
aI-1047
atp3036
Rp3037
sI1013
g1
((lp3038
I-2
atp3039
Rp3040
sI1014
g1
((lp3041
I-49
atp3042
Rp3043
sI1015
g1
((lp3044
I-1048
aI-1049
atp3045
Rp3046
sI1016
g1
((lp3047
I-1
atp3048
Rp3049
sI1017
g1
((lp3050
I-1054
aI-1053
aI-1052
aI-1051
aI-1050
aI-79
aI-103
aI-764
atp3051
Rp3052
sI1018
g1
((lp3053
I-1056
aI-1055
aI-29
aI-103
atp3054
Rp3055
sI1019
g1
((lp3056
I-1057
atp3057
Rp3058
sI1020
g1
((lp3059
I-11
aI-10
aI-9
aI-8
aI-7
aI-6
atp3060
Rp3061
sI1021
g1
((lp3062
I-1060
aI-1059
aI-1058
atp3063
Rp3064
sI1022
g1
((lp3065
I-62
aI-4
atp3066
Rp3067
sI1023
g1
((lp3068
I-29
aI-1061
atp3069
Rp3070
sI1024
g1
((lp3071
I-29
atp3072
Rp3073
sI1025
g1
((lp3074
I-1062
aI-75
aI-74
atp3075
Rp3076
sI1026
g1
((lp3077
I-29
atp3078
Rp3079
sI1027
g1
((lp3080
I-680
aI-683
aI-682
aI-681
atp3081
Rp3082
sI1028
g1
((lp3083
I-29
atp3084
Rp3085
sI1029
g1
((lp3086
I-7
aI-85
aI-84
aI-83
atp3087
Rp3088
sI1030
g1
((lp3089
I-7
aI-85
aI-84
aI-1063
atp3090
Rp3091
sI1031
g1
((lp3092
I-7
aI-354
atp3093
Rp3094
sI1032
g1
((lp3095
I-74
atp3096
Rp3097
sI1033
g1
((lp3098
I-11
aI-10
aI-9
aI-8
aI-7
aI-6
aI-5
atp3099
Rp3100
sI1034
g1
((lp3101
I-1
atp3102
Rp3103
sI1035
g1
((lp3104
I-767
aI-406
aI-765
aI-766
atp3105
Rp3106
sI1036
g1
((lp3107
I-65
atp3108
Rp3109
sI1037
g1
((lp3110
I-96
aI-98
aI-97
atp3111
Rp3112
sI1038
g1
((lp3113
I-192
aI-986
atp3114
Rp3115
sI1039
g1
((lp3116
I-29
atp3117
Rp3118
sI1040
g1
((lp3119
I-29
atp3120
Rp3121
sI1041
g1
((lp3122
I-29
atp3123
Rp3124
sI1042
g1
((lp3125
I-24
aI-27
aI-26
aI-25
atp3126
Rp3127
sI1043
g1
((lp3128
I-348
aI-344
aI-343
aI-340
aI-358
aI-357
atp3129
Rp3130
sI1044
g1
((lp3131
I-510
aI-509
aI-508
aI-507
aI-506
aI-505
aI-83
atp3132
Rp3133
sI1045
g1
((lp3134
I-1064
aI-28
aI-1
aI-1065
atp3135
Rp3136
sI1046
g1
((lp3137
I-1
atp3138
Rp3139
sI1047
g1
((lp3140
I-831
aI-4
atp3141
Rp3142
sI1048
g1
((lp3143
I-1
atp3144
Rp3145
sI1049
g1
((lp3146
I-192
aI-986
atp3147
Rp3148
sI1050
g1
((lp3149
I-1066
aI-570
aI-82
atp3150
Rp3151
sI1051
g1
((lp3152
I-767
aI-406
aI-765
aI-766
atp3153
Rp3154
sI1052
g1
((lp3155
I-29
aI-1068
aI-1067
aI-227
atp3156
Rp3157
sI1053
g1
((lp3158
I-1072
aI-1071
aI-1070
aI-1069
atp3159
Rp3160
sI1054
g1
((lp3161
I-192
atp3162
Rp3163
sI1055
g1
((lp3164
I-465
aI-353
atp3165
Rp3166
sI1056
g1
((lp3167
I-465
aI-353
atp3168
Rp3169
sI1057
g1
((lp3170
I-62
aI-4
atp3171
Rp3172
sI1058
g1
((lp3173
I-465
aI-353
atp3174
Rp3175
sI1059
g1
((lp3176
I-465
aI-353
atp3177
Rp3178
sI1060
g1
((lp3179
I-4
aI-123
aI-1073
atp3180
Rp3181
sI1061
g1
((lp3182
I-87
atp3183
Rp3184
sI1062
g1
((lp3185
I-160
aI-159
aI-27
aI-161
atp3186
Rp3187
sI1063
g1
((lp3188
I-24
aI-27
aI-26
aI-25
atp3189
Rp3190
sI1064
g1
((lp3191
I-11
atp3192
Rp3193
sI1065
g1
((lp3194
I-29
atp3195
Rp3196
sI1066
g1
((lp3197
I-1076
aI-11
aI-1074
aI-1075
atp3198
Rp3199
sI1067
g1
((lp3200
I-29
aI-1077
atp3201
Rp3202
sI1068
g1
((lp3203
I-767
aI-406
aI-765
aI-766
atp3204
Rp3205
sI1069
g1
((lp3206
I-29
atp3207
Rp3208
sI1070
g1
((lp3209
I-1078
aI-4
atp3210
Rp3211
sI1071
g1
((lp3212
I-62
aI-4
atp3213
Rp3214
sI1072
g1
((lp3215
I-1
atp3216
Rp3217
sI1073
g1
((lp3218
I-1080
aI-1079
aI-118
aI-1081
atp3219
Rp3220
sI1074
g1
((lp3221
I-1
atp3222
Rp3223
sI1075
g1
((lp3224
I-28
atp3225
Rp3226
sI1076
g1
((lp3227
I-942
aI-1085
aI-1084
aI-1083
aI-1082
atp3228
Rp3229
sI1077
g1
((lp3230
I-192
atp3231
Rp3232
sI1078
g1
((lp3233
I-1086
aI-234
atp3234
Rp3235
sI1079
g1
((lp3236
I-1087
aI-462
aI-45
atp3237
Rp3238
sI1080
g1
((lp3239
I-29
atp3240
Rp3241
sI1081
g1
((lp3242
I-308
atp3243
Rp3244
sI1082
g1
((lp3245
I-11
atp3246
Rp3247
sI1083
g1
((lp3248
I-767
aI-406
aI-765
aI-766
atp3249
Rp3250
sI1084
g1
((lp3251
I-1088
aI-65
atp3252
Rp3253
sI1085
g1
((lp3254
I-29
atp3255
Rp3256
sI1086
g1
((lp3257
I-29
atp3258
Rp3259
sI1087
g1
((lp3260
I-45
aI-1095
aI-1094
aI-1093
aI-1092
aI-1091
aI-1090
aI-1089
atp3261
Rp3262
sI1088
g1
((lp3263
I-79
atp3264
Rp3265
sI1089
g1
((lp3266
I-353
atp3267
Rp3268
sI1090
g1
((lp3269
I-29
atp3270
Rp3271
sI1091
g1
((lp3272
I-29
atp3273
Rp3274
sI1092
g1
((lp3275
I-1096
aI-29
aI-1097
atp3276
Rp3277
sI1093
g1
((lp3278
I-62
aI-4
atp3279
Rp3280
sI1094
g1
((lp3281
I-29
atp3282
Rp3283
sI1095
g1
((lp3284
I-29
atp3285
Rp3286
sI1096
g1
((lp3287
I-4
atp3288
Rp3289
sI1097
g1
((lp3290
I-1
atp3291
Rp3292
sI1098
g1
((lp3293
I-976
aI-79
aI-1098
atp3294
Rp3295
sI1099
g1
((lp3296
I-29
atp3297
Rp3298
sI1100
g1
((lp3299
I-29
atp3300
Rp3301
sI1101
g1
((lp3302
I-29
atp3303
Rp3304
sI1102
g1
((lp3305
I-29
aI-1004
atp3306
Rp3307
sI1103
g1
((lp3308
I-1102
aI-1101
aI-1100
aI-1099
aI-647
aI-645
atp3309
Rp3310
sI1104
g1
((lp3311
I-1103
aI-4
atp3312
Rp3313
sI1105
g1
((lp3314
I-1104
aI-919
aI-245
aI-282
aI-1105
atp3315
Rp3316
sI1106
g1
((lp3317
I-879
aI-878
aI-851
aI-65
atp3318
Rp3319
sI1107
g1
((lp3320
I-29
aI-1107
aI-1106
atp3321
Rp3322
sI1108
g1
((lp3323
I-74
aI-73
atp3324
Rp3325
sI1109
g1
((lp3326
I-128
aI-1108
atp3327
Rp3328
sI1110
g1
((lp3329
I-1109
aI-141
atp3330
Rp3331
sI1111
g1
((lp3332
I-1110
aI-1034
atp3333
Rp3334
sI1112
g1
((lp3335
I-7
atp3336
Rp3337
sI1113
g1
((lp3338
I-656
aI-659
aI-658
aI-657
atp3339
Rp3340
sI1114
g1
((lp3341
I-1112
aI-1111
aI-11
aI-2
atp3342
Rp3343
sI1115
g1
((lp3344
I-1116
aI-1115
aI-1114
aI-1113
atp3345
Rp3346
sI1116
g1
((lp3347
I-24
aI-27
aI-26
aI-25
atp3348
Rp3349
sI1117
g1
((lp3350
I-831
aI-4
atp3351
Rp3352
sI1118
g1
((lp3353
I-135
aI-1117
aI-444
aI-353
atp3354
Rp3355
sI1119
g1
((lp3356
I-29
aI-1107
aI-1106
atp3357
Rp3358
sI1120
g1
((lp3359
I-1118
aI-29
atp3360
Rp3361
sI1121
g1
((lp3362
I-555
atp3363
Rp3364
sI1122
g1
((lp3365
I-29
atp3366
Rp3367
sI1123
g1
((lp3368
I-29
atp3369
Rp3370
sI1124
g1
((lp3371
I-1120
aI-1119
aI-154
aI-49
aI-517
aI-1124
aI-1123
aI-1122
aI-1121
atp3372
Rp3373
sI1125
g1
((lp3374
I-328
aI-101
aI-102
aI-29
aI-1125
atp3375
Rp3376
sI1126
g1
((lp3377
I-656
aI-72
aI-1133
aI-1132
aI-1131
aI-1130
aI-1129
aI-1128
aI-1127
aI-1126
atp3378
Rp3379
sI1127
g1
((lp3380
I-4
atp3381
Rp3382
sI1128
g1
((lp3383
I-1134
aI-45
atp3384
Rp3385
sI1129
g1
((lp3386
I-519
aI-29
aI-955
aI-1135
atp3387
Rp3388
sI1130
g1
((lp3389
I-29
atp3390
Rp3391
sI1131
g1
((lp3392
I-29
atp3393
Rp3394
sI1132
g1
((lp3395
I-29
aI-233
atp3396
Rp3397
sI1133
g1
((lp3398
I-29
aI-1107
aI-1106
atp3399
Rp3400
sI1134
g1
((lp3401
I-24
aI-27
aI-26
aI-25
atp3402
Rp3403
sI1135
g1
((lp3404
I-29
atp3405
Rp3406
sI1136
g1
((lp3407
I-4
atp3408
Rp3409
sI1137
g1
((lp3410
I-1136
aI-28
atp3411
Rp3412
sI1138
g1
((lp3413
I-353
atp3414
Rp3415
sI1139
g1
((lp3416
I-24
aI-27
aI-26
aI-25
atp3417
Rp3418
sI1140
g1
((lp3419
I-28
aI-51
aI-1137
atp3420
Rp3421
sI1141
g1
((lp3422
I-175
atp3423
Rp3424
sI1142
g1
((lp3425
I-29
atp3426
Rp3427
sI1143
g1
((lp3428
I-1
atp3429
Rp3430
sI1144
g1
((lp3431
I-7
aI-28
atp3432
Rp3433
sI1145
g1
((lp3434
I-29
aI-1138
atp3435
Rp3436
sI1146
g1
((lp3437
I-1141
aI-29
aI-1140
aI-1139
aI-65
atp3438
Rp3439
sI1147
g1
((lp3440
I-133
aI-4
aI-33
atp3441
Rp3442
sI1148
g1
((lp3443
I-29
atp3444
Rp3445
sI1149
g1
((lp3446
I-1142
aI-245
atp3447
Rp3448
sI1150
g1
((lp3449
I-11
atp3450
Rp3451
sI1151
g1
((lp3452
I-1143
aI-141
aI-930
aI-745
atp3453
Rp3454
sI1152
g1
((lp3455
I-1144
aI-29
aI-1145
atp3456
Rp3457
sI1153
g1
((lp3458
I-29
atp3459
Rp3460
sI1154
g1
((lp3461
I-1004
aI-353
atp3462
Rp3463
sI1155
g1
((lp3464
I-462
aI-45
aI-1146
atp3465
Rp3466
sI1156
g1
((lp3467
I-1004
aI-4
atp3468
Rp3469
sI1157
g1
((lp3470
I-29
atp3471
Rp3472
sI1158
g1
((lp3473
I-141
aI-1147
atp3474
Rp3475
sI1159
g1
((lp3476
I-29
atp3477
Rp3478
sI1160
g1
((lp3479
I-29
aI-1107
aI-1106
atp3480
Rp3481
sI1161
g1
((lp3482
I-29
atp3483
Rp3484
sI1162
g1
((lp3485
I-1148
aI-29
aI-101
aI-1149
atp3486
Rp3487
sI1163
g1
((lp3488
I-29
aI-292
aI-193
atp3489
Rp3490
sI1164
g1
((lp3491
I-74
atp3492
Rp3493
sI1165
g1
((lp3494
I-1151
aI-1150
aI-141
atp3495
Rp3496
sI1166
g1
((lp3497
I-29
atp3498
Rp3499
sI1167
g1
((lp3500
I-1152
aI-135
aI-1153
atp3501
Rp3502
sI1168
g1
((lp3503
I-972
atp3504
Rp3505
sI1169
g1
((lp3506
I-7
atp3507
Rp3508
sI1170
g1
((lp3509
I-6
atp3510
Rp3511
sI1171
g1
((lp3512
I-1
atp3513
Rp3514
sI1172
g1
((lp3515
I-29
aI-1156
aI-68
aI-1155
aI-1154
aI-65
atp3516
Rp3517
sI1173
g1
((lp3518
I-1160
aI-1159
aI-1158
aI-1157
atp3519
Rp3520
sI1174
g1
((lp3521
I-126
aI-1163
aI-142
aI-1162
aI-1161
atp3522
Rp3523
sI1175
g1
((lp3524
I-29
aI-1164
aI-193
atp3525
Rp3526
sI1176
g1
((lp3527
I-29
aI-1107
aI-1106
atp3528
Rp3529
sI1177
g1
((lp3530
I-133
aI-1004
aI-29
atp3531
Rp3532
sI1178
g1
((lp3533
I-1165
aI-49
atp3534
Rp3535
sI1179
g1
((lp3536
I-29
atp3537
Rp3538
sI1180
g1
((lp3539
I-29
aI-369
aI-1168
aI-1167
aI-1166
aI-68
atp3540
Rp3541
sI1181
g1
((lp3542
I-29
atp3543
Rp3544
sI1182
g1
((lp3545
I-1004
aI-4
atp3546
Rp3547
sI1183
g1
((lp3548
I-29
atp3549
Rp3550
sI1184
g1
((lp3551
I-29
atp3552
Rp3553
sI1185
g1
((lp3554
I-413
aI-412
aI-411
aI-410
aI-409
aI-408
aI-407
aI-406
atp3555
Rp3556
sI1186
g1
((lp3557
I-141
aI-1170
aI-1169
atp3558
Rp3559
sI1187
g1
((lp3560
I-972
atp3561
Rp3562
sI1188
g1
((lp3563
I-74
atp3564
Rp3565
sI1189
g1
((lp3566
I-79
aI-1004
atp3567
Rp3568
sI1190
g1
((lp3569
I-29
aI-227
aI-314
atp3570
Rp3571
sI1191
g1
((lp3572
I-29
aI-1172
aI-1171
aI-1173
atp3573
Rp3574
sI1192
g1
((lp3575
I-29
aI-1107
aI-1106
atp3576
Rp3577
sI1193
g1
((lp3578
I-29
aI-1004
atp3579
Rp3580
sI1194
g1
((lp3581
I-8
aI-7
aI-6
aI-10
aI-9
atp3582
Rp3583
sI1195
g1
((lp3584
I-756
aI-618
aI-1
atp3585
Rp3586
sI1196
g1
((lp3587
I-28
atp3588
Rp3589
sI1197
g1
((lp3590
I-96
aI-1175
aI-1174
atp3591
Rp3592
sI1198
g1
((lp3593
I-510
aI-509
aI-508
aI-507
aI-506
aI-505
aI-83
atp3594
Rp3595
sI1199
g1
((lp3596
I-1176
aI-76
aI-1179
aI-1178
aI-1177
atp3597
Rp3598
sI1200
g1
((lp3599
I-1180
aI-68
aI-1052
aI-65
atp3600
Rp3601
sI1201
g1
((lp3602
I-29
aI-1107
aI-1106
atp3603
Rp3604
sI1202
g1
((lp3605
I-1181
aI-178
atp3606
Rp3607
sI1203
g1
((lp3608
I-62
aI-4
atp3609
Rp3610
sI1204
g1
((lp3611
I-192
atp3612
Rp3613
sI1205
g1
((lp3614
I-7
aI-28
atp3615
Rp3616
sI1206
g1
((lp3617
I-192
aI-1183
aI-1182
atp3618
Rp3619
sI1207
g1
((lp3620
I-208
atp3621
Rp3622
sI1208
g1
((lp3623
I-45
atp3624
Rp3625
sI1209
g1
((lp3626
I-4
atp3627
Rp3628
sI1210
g1
((lp3629
I-76
aI-75
aI-74
aI-73
atp3630
Rp3631
sI1211
g1
((lp3632
I-29
atp3633
Rp3634
sI1212
g1
((lp3635
I-1184
aI-29
atp3636
Rp3637
sI1213
g1
((lp3638
I-4
atp3639
Rp3640
sI1214
g1
((lp3641
I-142
aI-1187
aI-1186
aI-1185
atp3642
Rp3643
sI1215
g1
((lp3644
I-12
atp3645
Rp3646
sI1216
g1
((lp3647
I-29
aI-1004
atp3648
Rp3649
sI1217
g1
((lp3650
I-29
atp3651
Rp3652
sI1218
g1
((lp3653
I-1181
aI-76
atp3654
Rp3655
sI1219
g1
((lp3656
I-1189
aI-29
aI-1188
atp3657
Rp3658
sI1220
g1
((lp3659
I-24
aI-27
aI-26
aI-25
atp3660
Rp3661
sI1221
g1
((lp3662
I-192
atp3663
Rp3664
sI1222
g1
((lp3665
I-1190
aI-29
atp3666
Rp3667
sI1223
g1
((lp3668
I-4
atp3669
Rp3670
sI1224
g1
((lp3671
I-1
atp3672
Rp3673
sI1225
g1
((lp3674
I-51
aI-11
aI-10
aI-9
aI-8
aI-7
aI-6
atp3675
Rp3676
sI1226
g1
((lp3677
I-1
atp3678
Rp3679
sI1227
g1
((lp3680
I-28
aI-1013
aI-1012
aI-1011
aI-1010
aI-451
atp3681
Rp3682
sI1228
g1
((lp3683
I-603
atp3684
Rp3685
sI1229
g1
((lp3686
I-76
aI-75
aI-74
aI-73
atp3687
Rp3688
sI1230
g1
((lp3689
I-192
atp3690
Rp3691
sI1231
g1
((lp3692
I-585
atp3693
Rp3694
sI1232
g1
((lp3695
I-192
atp3696
Rp3697
sI1233
g1
((lp3698
I-3
aI-2
atp3699
Rp3700
sI1234
g1
((lp3701
I-1191
atp3702
Rp3703
sI1235
g1
((lp3704
I-141
aI-49
atp3705
Rp3706
sI1236
g1
((lp3707
I-1192
atp3708
Rp3709
sI1237
g1
((lp3710
I-7
atp3711
Rp3712
sI1238
g1
((lp3713
I-4
atp3714
Rp3715
sI1239
g1
((lp3716
I-45
aI-180
aI-179
atp3717
Rp3718
sI1240
g1
((lp3719
I-192
aI-1193
atp3720
Rp3721
sI1241
g1
((lp3722
I-29
aI-1194
atp3723
Rp3724
sI1242
g1
((lp3725
I-480
aI-1196
aI-1195
atp3726
Rp3727
sI1243
g1
((lp3728
I-133
aI-4
atp3729
Rp3730
sI1244
g1
((lp3731
I-24
aI-27
aI-26
aI-25
atp3732
Rp3733
sI1245
g1
((lp3734
I-1197
aI-1
atp3735
Rp3736
sI1246
g1
((lp3737
I-1200
aI-1199
aI-1198
atp3738
Rp3739
sI1247
g1
((lp3740
I-4
atp3741
Rp3742
sI1248
g1
((lp3743
I-74
atp3744
Rp3745
sI1249
g1
((lp3746
I-192
aI-1202
aI-1201
atp3747
Rp3748
sI1250
g1
((lp3749
I-1204
aI-1203
atp3750
Rp3751
sI1251
g1
((lp3752
I-16
aI-1206
aI-1205
atp3753
Rp3754
sI1252
g1
((lp3755
I-1207
atp3756
Rp3757
sI1253
g1
((lp3758
I-1208
aI-27
aI-1209
atp3759
Rp3760
sI1254
g1
((lp3761
I-2
aI-1212
aI-1211
aI-1210
atp3762
Rp3763
sI1255
g1
((lp3764
I-29
aI-490
atp3765
Rp3766
sI1256
g1
((lp3767
I-192
atp3768
Rp3769
sI1257
g1
((lp3770
I-24
aI-27
aI-26
aI-25
atp3771
Rp3772
sI1258
g1
((lp3773
I-1013
aI-7
aI-1213
aI-28
atp3774
Rp3775
sI1259
g1
((lp3776
I-644
atp3777
Rp3778
sI1260
g1
((lp3779
I-1214
atp3780
Rp3781
sI1261
g1
((lp3782
I-192
atp3783
Rp3784
sI1262
g1
((lp3785
I-178
atp3786
Rp3787
sI1263
g1
((lp3788
I-1216
aI-1215
aI-156
aI-251
aI-1220
aI-1219
aI-1218
aI-1217
atp3789
Rp3790
sI1264
g1
((lp3791
I-64
aI-1221
aI-1076
aI-178
atp3792
Rp3793
sI1265
g1
((lp3794
I-7
aI-28
atp3795
Rp3796
sI1266
g1
((lp3797
I-24
aI-27
aI-26
aI-25
atp3798
Rp3799
sI1267
g1
((lp3800
I-156
aI-1227
aI-1226
aI-1225
aI-1224
aI-1223
aI-1222
atp3801
Rp3802
sI1268
g1
((lp3803
I-24
aI-27
aI-26
aI-25
atp3804
Rp3805
sI1269
g1
((lp3806
I-192
atp3807
Rp3808
sI1270
g1
((lp3809
I-160
aI-159
aI-27
aI-161
atp3810
Rp3811
sI1271
g1
((lp3812
I-1
atp3813
Rp3814
sI1272
g1
((lp3815
I-1228
aI-1
atp3816
Rp3817
sI1273
g1
((lp3818
I-369
aI-1229
aI-133
aI-764
aI-65
atp3819
Rp3820
sI1274
g1
((lp3821
I-1230
aI-2
atp3822
Rp3823
sI1275
g1
((lp3824
I-1231
aI-29
atp3825
Rp3826
sI1276
g1
((lp3827
I-28
atp3828
Rp3829
sI1277
g1
((lp3830
I-1232
aI-1
atp3831
Rp3832
sI1278
g1
((lp3833
I-82
aI-1233
atp3834
Rp3835
sI1279
g1
((lp3836
I-156
aI-1239
aI-1238
aI-1237
aI-1236
aI-851
aI-1234
aI-1235
atp3837
Rp3838
sI1280
g1
((lp3839
I-361
atp3840
Rp3841
sI1281
g1
((lp3842
I-11
atp3843
Rp3844
sI1282
g1
((lp3845
I-2
atp3846
Rp3847
sI1283
g1
((lp3848
I-192
atp3849
Rp3850
sI1284
g1
((lp3851
I-1240
aI-1052
aI-4
aI-955
aI-1241
atp3852
Rp3853
sI1285
g1
((lp3854
I-133
aI-4
atp3855
Rp3856
sI1286
g1
((lp3857
I-1
atp3858
Rp3859
sI1287
g1
((lp3860
I-1
atp3861
Rp3862
sI1288
g1
((lp3863
I-192
atp3864
Rp3865
sI1289
g1
((lp3866
I-142
aI-1244
aI-1243
aI-1242
atp3867
Rp3868
sI1290
g1
((lp3869
I-11
aI-10
aI-9
aI-8
aI-7
aI-6
atp3870
Rp3871
sI1291
g1
((lp3872
I-1
atp3873
Rp3874
sI1292
g1
((lp3875
I-29
atp3876
Rp3877
sI1293
g1
((lp3878
I-1245
aI-1246
aI-461
aI-60
aI-919
atp3879
Rp3880
sI1294
g1
((lp3881
I-1247
aI-894
aI-437
aI-814
aI-49
atp3882
Rp3883
sI1295
g1
((lp3884
I-24
aI-27
aI-26
aI-25
atp3885
Rp3886
sI1296
g1
((lp3887
I-7
aI-287
atp3888
Rp3889
sI1297
g1
((lp3890
I-1248
aI-1062
aI-76
aI-75
aI-74
atp3891
Rp3892
sI1298
g1
((lp3893
I-128
atp3894
Rp3895
sI1299
g1
((lp3896
I-29
atp3897
Rp3898
sI1300
g1
((lp3899
I-32
aI-31
aI-29
aI-1249
aI-36
aI-35
aI-34
aI-33
atp3900
Rp3901
sI1301
g1
((lp3902
I-656
atp3903
Rp3904
sI1302
g1
((lp3905
I-45
atp3906
Rp3907
sI1303
g1
((lp3908
I-62
aI-555
aI-1250
atp3909
Rp3910
sI1304
g1
((lp3911
I-1
atp3912
Rp3913
sI1305
g1
((lp3914
I-192
aI-1252
aI-1251
atp3915
Rp3916
sI1306
g1
((lp3917
I-28
atp3918
Rp3919
sI1307
g1
((lp3920
I-1253
aI-4
atp3921
Rp3922
sI1308
g1
((lp3923
I-1256
aI-1255
aI-1254
aI-29
atp3924
Rp3925
sI1309
g1
((lp3926
I-192
atp3927
Rp3928
sI1310
g1
((lp3929
I-29
aI-1257
atp3930
Rp3931
sI1311
g1
((lp3932
I-45
aI-1258
atp3933
Rp3934
sI1312
g1
((lp3935
I-1260
aI-1259
aI-65
atp3936
Rp3937
sI1313
g1
((lp3938
I-1160
aI-1159
aI-1158
aI-1157
atp3939
Rp3940
sI1314
g1
((lp3941
I-214
atp3942
Rp3943
sI1315
g1
((lp3944
I-1261
aI-29
atp3945
Rp3946
sI1316
g1
((lp3947
I-1111
aI-11
atp3948
Rp3949
sI1317
g1
((lp3950
I-1262
aI-29
atp3951
Rp3952
sI1318
g1
((lp3953
I-1264
aI-1263
aI-141
aI-1266
aI-1265
atp3954
Rp3955
sI1319
g1
((lp3956
I-133
aI-4
atp3957
Rp3958
sI1320
g1
((lp3959
I-141
aI-826
atp3960
Rp3961
sI1321
g1
((lp3962
I-121
aI-1269
aI-1268
aI-1267
aI-135
aI-65
atp3963
Rp3964
sI1322
g1
((lp3965
I-1
atp3966
Rp3967
sI1323
g1
((lp3968
I-7
aI-1270
aI-1271
atp3969
Rp3970
sI1324
g1
((lp3971
I-1272
aI-76
aI-1273
atp3972
Rp3973
sI1325
g1
((lp3974
I-1
atp3975
Rp3976
sI1326
g1
((lp3977
I-16
aI-1276
aI-1275
aI-1274
atp3978
Rp3979
sI1327
g1
((lp3980
I-141
aI-851
atp3981
Rp3982
sI1328
g1
((lp3983
I-24
aI-27
aI-26
aI-25
atp3984
Rp3985
sI1329
g1
((lp3986
I-12
atp3987
Rp3988
sI1330
g1
((lp3989
I-29
atp3990
Rp3991
sI1331
g1
((lp3992
I-1277
aI-11
atp3993
Rp3994
sI1332
g1
((lp3995
I-1
atp3996
Rp3997
sI1333
g1
((lp3998
I-1278
aI-1014
aI-4
aI-763
aI-1279
atp3999
Rp4000
sI1334
g1
((lp4001
I-7
atp4002
Rp4003
sI1335
g1
((lp4004
I-1077
aI-4
atp4005
Rp4006
sI1336
g1
((lp4007
I-1
atp4008
Rp4009
sI1337
g1
((lp4010
I-62
aI-4
atp4011
Rp4012
sI1338
g1
((lp4013
I-29
atp4014
Rp4015
sI1339
g1
((lp4016
I-78
aI-11
atp4017
Rp4018
sI1340
g1
((lp4019
I-138
atp4020
Rp4021
sI1341
g1
((lp4022
I-1280
aI-29
atp4023
Rp4024
sI1342
g1
((lp4025
I-374
aI-990
aI-1281
atp4026
Rp4027
sI1343
g1
((lp4028
I-192
atp4029
Rp4030
sI1344
g1
((lp4031
I-45
atp4032
Rp4033
sI1345
g1
((lp4034
I-29
atp4035
Rp4036
sI1346
g1
((lp4037
I-942
aI-45
aI-1289
aI-1288
aI-1287
aI-1286
aI-1285
aI-1284
aI-1283
aI-1282
atp4038
Rp4039
sI1347
g1
((lp4040
I-1291
aI-1290
aI-1
aI-1177
atp4041
Rp4042
sI1348
g1
((lp4043
I-11
atp4044
Rp4045
sI1349
g1
((lp4046
I-16
aI-903
aI-1294
aI-1293
aI-1292
atp4047
Rp4048
sI1350
g1
((lp4049
I-175
atp4050
Rp4051
sI1351
g1
((lp4052
I-4
atp4053
Rp4054
sI1352
g1
((lp4055
I-24
aI-27
aI-26
aI-25
atp4056
Rp4057
sI1353
g1
((lp4058
I-192
aI-1295
atp4059
Rp4060
sI1354
g1
((lp4061
I-1296
aI-156
aI-1018
aI-1297
atp4062
Rp4063
sI1355
g1
((lp4064
I-29
atp4065
Rp4066
sI1356
g1
((lp4067
I-133
aI-4
atp4068
Rp4069
sI1357
g1
((lp4070
I-29
atp4071
Rp4072
sI1358
g1
((lp4073
I-192
aI-567
aI-1302
aI-1301
aI-1300
aI-1299
aI-1298
aI-1201
atp4074
Rp4075
sI1359
g1
((lp4076
I-192
atp4077
Rp4078
sI1360
g1
((lp4079
I-135
aI-1004
aI-65
atp4080
Rp4081
sI1361
g1
((lp4082
I-29
atp4083
Rp4084
sI1362
g1
((lp4085
I-3
aI-2
atp4086
Rp4087
sI1363
g1
((lp4088
I-11
atp4089
Rp4090
sI1364
g1
((lp4091
I-1
atp4092
Rp4093
sI1365
g1
((lp4094
I-432
aI-1303
aI-11
atp4095
Rp4096
sI1366
g1
((lp4097
I-87
atp4098
Rp4099
sI1367
g1
((lp4100
I-2
atp4101
Rp4102
sI1368
g1
((lp4103
I-1304
atp4104
Rp4105
sI1369
g1
((lp4106
I-79
aI-1305
atp4107
Rp4108
sI1370
g1
((lp4109
I-62
aI-4
atp4110
Rp4111
sI1371
g1
((lp4112
I-74
atp4113
Rp4114
sI1372
g1
((lp4115
I-87
atp4116
Rp4117
sI1373
g1
((lp4118
I-6
atp4119
Rp4120
sI1374
g1
((lp4121
I-178
aI-1306
atp4122
Rp4123
sI1375
g1
((lp4124
I-120
aI-4
atp4125
Rp4126
sI1376
g1
((lp4127
I-29
aI-1307
atp4128
Rp4129
sI1377
g1
((lp4130
I-16
aI-1308
atp4131
Rp4132
sI1378
g1
((lp4133
I-1310
aI-1309
atp4134
Rp4135
sI1379
g1
((lp4136
I-232
aI-83
aI-1
atp4137
Rp4138
sI1380
g1
((lp4139
I-76
aI-75
aI-74
atp4140
Rp4141
sI1381
g1
((lp4142
I-1311
aI-4
atp4143
Rp4144
sI1382
g1
((lp4145
I-192
aI-1312
aI-449
atp4146
Rp4147
sI1383
g1
((lp4148
I-87
atp4149
Rp4150
sI1384
g1
((lp4151
I-160
aI-159
aI-27
aI-161
atp4152
Rp4153
sI1385
g1
((lp4154
I-2
aI-1313
atp4155
Rp4156
sI1386
g1
((lp4157
I-1317
aI-496
aI-1321
aI-1320
aI-1319
aI-1318
aI-677
aI-1316
aI-1315
aI-1314
aI-65
atp4158
Rp4159
sI1387
g1
((lp4160
I-3
aI-1322
aI-1323
atp4161
Rp4162
sI1388
g1
((lp4163
I-7
aI-287
atp4164
Rp4165
sI1389
g1
((lp4166
I-141
atp4167
Rp4168
sI1390
g1
((lp4169
I-133
aI-4
atp4170
Rp4171
sI1391
g1
((lp4172
I-62
aI-4
atp4173
Rp4174
sI1392
g1
((lp4175
I-28
atp4176
Rp4177
sI1393
g1
((lp4178
I-192
aI-1324
atp4179
Rp4180
sI1394
g1
((lp4181
I-192
atp4182
Rp4183
sI1395
g1
((lp4184
I-62
aI-4
atp4185
Rp4186
sI1396
g1
((lp4187
I-192
atp4188
Rp4189
sI1397
g1
((lp4190
I-1312
aI-1326
aI-1325
aI-644
atp4191
Rp4192
sI1398
g1
((lp4193
I-133
aI-4
aI-33
atp4194
Rp4195
sI1399
g1
((lp4196
I-1
atp4197
Rp4198
sI1400
g1
((lp4199
I-1328
aI-1327
aI-45
aI-1330
aI-1329
atp4200
Rp4201
sI1401
g1
((lp4202
I-192
atp4203
Rp4204
sI1402
g1
((lp4205
I-1
atp4206
Rp4207
sI1403
g1
((lp4208
I-417
atp4209
Rp4210
sI1404
g1
((lp4211
I-990
aI-1333
aI-1332
aI-1331
atp4212
Rp4213
sI1405
g1
((lp4214
I-29
atp4215
Rp4216
sI1406
g1
((lp4217
I-29
atp4218
Rp4219
sI1407
g1
((lp4220
I-29
atp4221
Rp4222
sI1408
g1
((lp4223
I-141
aI-293
atp4224
Rp4225
sI1409
g1
((lp4226
I-175
atp4227
Rp4228
sI1410
g1
((lp4229
I-28
aI-210
aI-209
atp4230
Rp4231
sI1411
g1
((lp4232
I-1335
aI-1334
aI-45
atp4233
Rp4234
sI1412
g1
((lp4235
I-1046
aI-65
atp4236
Rp4237
sI1413
g1
((lp4238
I-29
atp4239
Rp4240
sI1414
g1
((lp4241
I-1336
atp4242
Rp4243
sI1415
g1
((lp4244
I-1338
aI-1337
atp4245
Rp4246
sI1416
g1
((lp4247
I-1064
aI-28
aI-1
aI-1065
atp4248
Rp4249
sI1417
g1
((lp4250
I-141
atp4251
Rp4252
sI1418
g1
((lp4253
I-215
atp4254
Rp4255
sI1419
g1
((lp4256
I-24
aI-27
aI-26
aI-25
atp4257
Rp4258
sI1420
g1
((lp4259
I-536
aI-7
aI-535
atp4260
Rp4261
sI1421
g1
((lp4262
I-24
aI-27
aI-26
aI-25
atp4263
Rp4264
sI1422
g1
((lp4265
I-1339
atp4266
Rp4267
sI1423
g1
((lp4268
I-24
aI-27
aI-26
aI-25
atp4269
Rp4270
sI1424
g1
((lp4271
I-64
aI-1340
aI-1342
aI-1341
aI-644
atp4272
Rp4273
sI1425
g1
((lp4274
I-24
aI-27
aI-26
aI-25
atp4275
Rp4276
sI1426
g1
((lp4277
I-192
atp4278
Rp4279
sI1427
g1
((lp4280
I-29
atp4281
Rp4282
sI1428
g1
((lp4283
I-1344
aI-1343
aI-39
aI-4
aI-1345
atp4284
Rp4285
sI1429
g1
((lp4286
I-24
aI-27
aI-26
aI-25
atp4287
Rp4288
sI1430
g1
((lp4289
I-24
aI-27
aI-26
aI-25
atp4290
Rp4291
sI1431
g1
((lp4292
I-192
atp4293
Rp4294
sI1432
g1
((lp4295
I-290
aI-1346
aI-169
atp4296
Rp4297
sI1433
g1
((lp4298
I-178
atp4299
Rp4300
sI1434
g1
((lp4301
I-1348
aI-1347
atp4302
Rp4303
sI1435
g1
((lp4304
I-169
aI-313
atp4305
Rp4306
sI1436
g1
((lp4307
I-4
atp4308
Rp4309
sI1437
g1
((lp4310
I-28
atp4311
Rp4312
sI1438
g1
((lp4313
I-1
atp4314
Rp4315
sI1439
g1
((lp4316
I-192
atp4317
Rp4318
sI1440
g1
((lp4319
I-7
atp4320
Rp4321
sI1441
g1
((lp4322
I-7
aI-1228
aI-1
atp4323
Rp4324
sI1442
g1
((lp4325
I-62
aI-4
atp4326
Rp4327
sI1443
g1
((lp4328
I-1350
aI-29
aI-1349
atp4329
Rp4330
sI1444
g1
((lp4331
I-45
aI-180
aI-179
atp4332
Rp4333
sI1445
g1
((lp4334
I-29
atp4335
Rp4336
sI1446
g1
((lp4337
I-192
atp4338
Rp4339
sI1447
g1
((lp4340
I-1351
atp4341
Rp4342
sI1448
g1
((lp4343
I-11
atp4344
Rp4345
sI1449
g1
((lp4346
I-691
aI-690
aI-689
aI-688
aI-82
aI-1352
atp4347
Rp4348
sI1450
g1
((lp4349
I-149
aI-178
atp4350
Rp4351
sI1451
g1
((lp4352
I-1356
aI-1355
aI-1354
aI-1353
atp4353
Rp4354
sI1452
g1
((lp4355
I-1
atp4356
Rp4357
sI1453
g1
((lp4358
I-1
atp4359
Rp4360
sI1454
g1
((lp4361
I-245
aI-1357
aI-97
atp4362
Rp4363
sI1455
g1
((lp4364
I-24
aI-27
aI-26
aI-25
atp4365
Rp4366
sI1456
g1
((lp4367
I-909
aI-396
atp4368
Rp4369
sI1457
g1
((lp4370
I-135
aI-444
aI-955
atp4371
Rp4372
sI1458
g1
((lp4373
I-599
atp4374
Rp4375
sI1459
g1
((lp4376
I-1
atp4377
Rp4378
sI1460
g1
((lp4379
I-29
atp4380
Rp4381
sI1461
g1
((lp4382
I-353
atp4383
Rp4384
sI1462
g1
((lp4385
I-192
atp4386
Rp4387
sI1463
g1
((lp4388
I-4
atp4389
Rp4390
sI1464
g1
((lp4391
I-1064
aI-28
aI-1
aI-1065
atp4392
Rp4393
sI1465
g1
((lp4394
I-303
atp4395
Rp4396
sI1466
g1
((lp4397
I-464
aI-463
aI-462
aI-461
aI-340
atp4398
Rp4399
sI1467
g1
((lp4400
I-1
atp4401
Rp4402
sI1468
g1
((lp4403
I-1
atp4404
Rp4405
sI1469
g1
((lp4406
I-536
aI-7
aI-535
atp4407
Rp4408
sI1470
g1
((lp4409
I-245
aI-1357
aI-97
atp4410
Rp4411
sI1471
g1
((lp4412
I-1358
atp4413
Rp4414
sI1472
g1
((lp4415
I-29
atp4416
Rp4417
sI1473
g1
((lp4418
I-1111
aI-11
atp4419
Rp4420
sI1474
g1
((lp4421
I-723
atp4422
Rp4423
sI1475
g1
((lp4424
I-1359
atp4425
Rp4426
sI1476
g1
((lp4427
I-1360
aI-927
atp4428
Rp4429
sI1477
g1
((lp4430
I-7
aI-287
atp4431
Rp4432
sI1478
g1
((lp4433
I-1361
atp4434
Rp4435
sI1479
g1
((lp4436
I-24
aI-27
aI-26
aI-25
atp4437
Rp4438
sI1480
g1
((lp4439
I-123
aI-1367
aI-1366
aI-1365
aI-1364
aI-1363
aI-1362
aI-496
aI-492
aI-135
aI-549
aI-1316
atp4440
Rp4441
sI1481
g1
((lp4442
I-29
atp4443
Rp4444
sI1482
g1
((lp4445
I-1350
aI-29
aI-1349
atp4446
Rp4447
sI1483
g1
((lp4448
I-1374
aI-1373
aI-1372
aI-1371
aI-1370
aI-1369
aI-1368
aI-662
atp4449
Rp4450
sI1484
g1
((lp4451
I-149
atp4452
Rp4453
sI1485
g1
((lp4454
I-3
aI-2
atp4455
Rp4456
sI1486
g1
((lp4457
I-2
atp4458
Rp4459
sI1487
g1
((lp4460
I-1375
aI-76
atp4461
Rp4462
sI1488
g1
((lp4463
I-62
aI-4
atp4464
Rp4465
sI1489
g1
((lp4466
I-192
atp4467
Rp4468
sI1490
g1
((lp4469
I-1376
aI-11
aI-2
atp4470
Rp4471
sI1491
g1
((lp4472
I-11
atp4473
Rp4474
sI1492
g1
((lp4475
I-60
aI-1018
aI-921
aI-105
aI-1379
aI-1378
aI-1377
atp4476
Rp4477
sI1493
g1
((lp4478
I-24
aI-27
aI-26
aI-25
atp4479
Rp4480
sI1494
g1
((lp4481
I-28
atp4482
Rp4483
sI1495
g1
((lp4484
I-45
aI-44
aI-43
aI-1383
aI-1382
aI-1381
aI-1380
atp4485
Rp4486
sI1496
g1
((lp4487
I-29
aI-233
atp4488
Rp4489
sI1497
g1
((lp4490
I-29
atp4491
Rp4492
sI1498
g1
((lp4493
I-1
atp4494
Rp4495
sI1499
g1
((lp4496
I-1384
aI-141
atp4497
Rp4498
sI1500
g1
((lp4499
I-258
atp4500
Rp4501
sI1501
g1
((lp4502
I-997
aI-996
aI-169
atp4503
Rp4504
sI1502
g1
((lp4505
I-24
aI-27
aI-26
aI-25
atp4506
Rp4507
sI1503
g1
((lp4508
I-192
aI-1386
aI-1385
atp4509
Rp4510
sI1504
g1
((lp4511
I-29
atp4512
Rp4513
sI1505
g1
((lp4514
I-1387
atp4515
Rp4516
sI1506
g1
((lp4517
I-3
aI-2
atp4518
Rp4519
sI1507
g1
((lp4520
I-29
atp4521
Rp4522
sI1508
g1
((lp4523
I-7
atp4524
Rp4525
sI1509
g1
((lp4526
I-1384
aI-141
atp4527
Rp4528
sI1510
g1
((lp4529
I-1389
aI-1388
aI-45
atp4530
Rp4531
sI1511
g1
((lp4532
I-1350
aI-29
aI-1349
atp4533
Rp4534
sI1512
g1
((lp4535
I-29
atp4536
Rp4537
sI1513
g1
((lp4538
I-879
aI-878
aI-851
aI-65
atp4539
Rp4540
sI1514
g1
((lp4541
I-3
aI-2
atp4542
Rp4543
sI1515
g1
((lp4544
I-7
aI-6
aI-709
aI-618
atp4545
Rp4546
sI1516
g1
((lp4547
I-212
aI-211
atp4548
Rp4549
sI1517
g1
((lp4550
I-1384
aI-141
atp4551
Rp4552
sI1518
g1
((lp4553
I-906
aI-28
aI-675
aI-2
atp4554
Rp4555
sI1519
g1
((lp4556
I-1391
aI-1390
aI-333
atp4557
Rp4558
sI1520
g1
((lp4559
I-1392
aI-2
aI-1393
atp4560
Rp4561
sI1521
g1
((lp4562
I-2
atp4563
Rp4564
sI1522
g1
((lp4565
I-24
aI-27
aI-26
aI-25
atp4566
Rp4567
sI1523
g1
((lp4568
I-24
aI-27
aI-26
aI-25
atp4569
Rp4570
sI1524
g1
((lp4571
I-1
atp4572
Rp4573
sI1525
g1
((lp4574
I-24
aI-27
aI-26
aI-25
atp4575
Rp4576
sI1526
g1
((lp4577
I-169
atp4578
Rp4579
sI1527
g1
((lp4580
I-1
atp4581
Rp4582
sI1528
g1
((lp4583
I-919
aI-282
aI-1105
atp4584
Rp4585
sI1529
g1
((lp4586
I-4
atp4587
Rp4588
sI1530
g1
((lp4589
I-24
aI-27
aI-26
aI-25
atp4590
Rp4591
sI1531
g1
((lp4592
I-192
aI-1386
aI-1385
atp4593
Rp4594
sI1532
g1
((lp4595
I-585
atp4596
Rp4597
sI1533
g1
((lp4598
I-24
aI-27
aI-26
aI-25
atp4599
Rp4600
sI1534
g1
((lp4601
I-282
aI-920
aI-919
aI-1396
aI-1395
aI-1394
aI-462
aI-45
atp4602
Rp4603
sI1535
g1
((lp4604
I-306
aI-1
atp4605
Rp4606
sI1536
g1
((lp4607
I-141
aI-1397
atp4608
Rp4609
sI1537
g1
((lp4610
I-141
aI-1397
atp4611
Rp4612
sI1538
g1
((lp4613
I-135
aI-134
aI-29
aI-132
aI-133
atp4614
Rp4615
sI1539
g1
((lp4616
I-141
aI-1397
atp4617
Rp4618
sI1540
g1
((lp4619
I-1398
aI-29
atp4620
Rp4621
sI1541
g1
((lp4622
I-1
atp4623
Rp4624
sI1542
g1
((lp4625
I-11
aI-433
atp4626
Rp4627
sI1543
g1
((lp4628
I-96
aI-638
atp4629
Rp4630
sI1544
g1
((lp4631
I-141
aI-1397
atp4632
Rp4633
sI1545
g1
((lp4634
I-1404
aI-1403
aI-1402
aI-1401
aI-1400
aI-1399
aI-65
atp4635
Rp4636
sI1546
g1
((lp4637
I-510
aI-509
aI-508
aI-507
aI-506
aI-505
aI-83
atp4638
Rp4639
sI1547
g1
((lp4640
I-1350
aI-29
aI-1349
atp4641
Rp4642
sI1548
g1
((lp4643
I-76
aI-75
aI-74
atp4644
Rp4645
sI1549
g1
((lp4646
I-11
aI-10
aI-9
aI-8
aI-7
aI-6
atp4647
Rp4648
sI1550
g1
((lp4649
I-1408
aI-1407
aI-1406
aI-1405
aI-76
atp4650
Rp4651
sI1551
g1
((lp4652
I-11
atp4653
Rp4654
sI1552
g1
((lp4655
I-7
atp4656
Rp4657
sI1553
g1
((lp4658
I-11
aI-10
aI-9
aI-8
aI-7
aI-6
atp4659
Rp4660
sI1554
g1
((lp4661
I-96
aI-250
aI-245
aI-98
aI-1410
aI-1409
atp4662
Rp4663
sI1555
g1
((lp4664
I-169
atp4665
Rp4666
sI1556
g1
((lp4667
I-96
aI-957
aI-241
aI-97
atp4668
Rp4669
sI1557
g1
((lp4670
I-1411
atp4671
Rp4672
sI1558
g1
((lp4673
I-1
atp4674
Rp4675
sI1559
g1
((lp4676
I-11
atp4677
Rp4678
sI1560
g1
((lp4679
I-1376
aI-11
aI-2
atp4680
Rp4681
sI1561
g1
((lp4682
I-310
aI-309
atp4683
Rp4684
sI1562
g1
((lp4685
I-4
atp4686
Rp4687
sI1563
g1
((lp4688
I-975
aI-11
aI-178
atp4689
Rp4690
sI1564
g1
((lp4691
I-96
aI-638
aI-245
aI-97
atp4692
Rp4693
sI1565
g1
((lp4694
I-1412
atp4695
Rp4696
sI1566
g1
((lp4697
I-1
atp4698
Rp4699
sI1567
g1
((lp4700
I-1413
atp4701
Rp4702
sI1568
g1
((lp4703
I-1414
aI-141
aI-602
atp4704
Rp4705
sI1569
g1
((lp4706
I-24
aI-27
aI-26
aI-25
atp4707
Rp4708
sI1570
g1
((lp4709
I-135
aI-134
aI-29
aI-132
aI-133
atp4710
Rp4711
sI1571
g1
((lp4712
I-29
atp4713
Rp4714
sI1572
g1
((lp4715
I-160
aI-159
aI-27
aI-161
atp4716
Rp4717
sI1573
g1
((lp4718
I-1415
aI-29
atp4719
Rp4720
sI1574
g1
((lp4721
I-1416
aI-1417
aI-49
atp4722
Rp4723
sI1575
g1
((lp4724
I-2
atp4725
Rp4726
sI1576
g1
((lp4727
I-245
atp4728
Rp4729
sI1577
g1
((lp4730
I-1
atp4731
Rp4732
sI1578
g1
((lp4733
I-28
aI-1013
aI-1012
aI-1011
aI-1010
aI-451
atp4734
Rp4735
sI1579
g1
((lp4736
I-11
aI-145
atp4737
Rp4738
sI1580
g1
((lp4739
I-23
aI-11
atp4740
Rp4741
sI1581
g1
((lp4742
I-1350
aI-29
aI-1349
atp4743
Rp4744
sI1582
g1
((lp4745
I-942
aI-1420
aI-1419
aI-1418
aI-251
atp4746
Rp4747
sI1583
g1
((lp4748
I-192
atp4749
Rp4750
sI1584
g1
((lp4751
I-1421
atp4752
Rp4753
sI1585
g1
((lp4754
I-1
atp4755
Rp4756
sI1586
g1
((lp4757
I-1422
aI-76
atp4758
Rp4759
sI1587
g1
((lp4760
I-1422
aI-76
atp4761
Rp4762
sI1588
g1
((lp4763
I-1167
aI-29
aI-68
aI-369
atp4764
Rp4765
sI1589
g1
((lp4766
I-232
aI-83
aI-1
atp4767
Rp4768
sI1590
g1
((lp4769
I-949
aI-341
aI-948
aI-339
aI-29
aI-358
atp4770
Rp4771
sI1591
g1
((lp4772
I-169
atp4773
Rp4774
sI1592
g1
((lp4775
I-73
aI-74
aI-1025
atp4776
Rp4777
sI1593
g1
((lp4778
I-192
atp4779
Rp4780
sI1594
g1
((lp4781
I-96
aI-1423
aI-245
aI-1043
atp4782
Rp4783
sI1595
g1
((lp4784
I-1
atp4785
Rp4786
sI1596
g1
((lp4787
I-1008
aI-11
aI-1009
atp4788
Rp4789
sI1597
g1
((lp4790
I-215
atp4791
Rp4792
sI1598
g1
((lp4793
I-7
aI-75
aI-1
atp4794
Rp4795
sI1599
g1
((lp4796
I-1424
atp4797
Rp4798
sI1600
g1
((lp4799
I-24
aI-27
aI-26
aI-25
atp4800
Rp4801
sI1601
g1
((lp4802
I-141
aI-1425
atp4803
Rp4804
sI1602
g1
((lp4805
I-7
aI-28
atp4806
Rp4807
sI1603
g1
((lp4808
I-96
aI-245
aI-1426
atp4809
Rp4810
sI1604
g1
((lp4811
I-1
atp4812
Rp4813
sI1605
g1
((lp4814
I-1
atp4815
Rp4816
sI1606
g1
((lp4817
I-1428
aI-1427
aI-1034
atp4818
Rp4819
sI1607
g1
((lp4820
I-2
atp4821
Rp4822
sI1608
g1
((lp4823
I-1430
aI-29
aI-1429
atp4824
Rp4825
sI1609
g1
((lp4826
I-96
aI-245
aI-91
atp4827
Rp4828
sI1610
g1
((lp4829
I-24
aI-27
aI-26
aI-25
atp4830
Rp4831
sI1611
g1
((lp4832
I-24
aI-27
aI-26
aI-25
atp4833
Rp4834
sI1612
g1
((lp4835
I-45
aI-618
atp4836
Rp4837
sI1613
g1
((lp4838
I-45
aI-618
atp4839
Rp4840
sI1614
g1
((lp4841
I-45
aI-618
atp4842
Rp4843
sI1615
g1
((lp4844
I-45
aI-618
atp4845
Rp4846
sI1616
g1
((lp4847
I-76
aI-74
atp4848
Rp4849
sI1617
g1
((lp4850
I-45
aI-618
atp4851
Rp4852
sI1618
g1
((lp4853
I-29
aI-490
atp4854
Rp4855
sI1619
g1
((lp4856
I-1432
aI-1431
aI-4
aI-1433
atp4857
Rp4858
sI1620
g1
((lp4859
I-11
aI-10
aI-9
aI-8
aI-7
aI-6
atp4860
Rp4861
sI1621
g1
((lp4862
I-4
atp4863
Rp4864
sI1622
g1
((lp4865
I-149
atp4866
Rp4867
sI1623
g1
((lp4868
I-192
atp4869
Rp4870
sI1624
g1
((lp4871
I-879
aI-878
aI-851
aI-65
atp4872
Rp4873
sI1625
g1
((lp4874
I-29
atp4875
Rp4876
sI1626
g1
((lp4877
I-24
aI-27
aI-26
aI-25
atp4878
Rp4879
sI1627
g1
((lp4880
I-24
aI-27
aI-26
aI-25
atp4881
Rp4882
sI1628
g1
((lp4883
I-96
aI-957
aI-1434
aI-118
aI-241
aI-97
atp4884
Rp4885
sI1629
g1
((lp4886
I-4
atp4887
Rp4888
sI1630
g1
((lp4889
I-142
aI-75
aI-74
atp4890
Rp4891
sI1631
g1
((lp4892
I-24
aI-27
aI-26
aI-25
atp4893
Rp4894
sI1632
g1
((lp4895
I-24
aI-27
aI-26
aI-25
atp4896
Rp4897
sI1633
g1
((lp4898
I-192
atp4899
Rp4900
sI1634
g1
((lp4901
I-45
aI-1435
atp4902
Rp4903
sI1635
g1
((lp4904
I-29
atp4905
Rp4906
sI1636
g1
((lp4907
I-1437
aI-1436
aI-27
atp4908
Rp4909
sI1637
g1
((lp4910
I-1438
atp4911
Rp4912
sI1638
g1
((lp4913
I-7
aI-28
atp4914
Rp4915
sI1639
g1
((lp4916
I-1
aI-177
atp4917
Rp4918
sI1640
g1
((lp4919
I-6
atp4920
Rp4921
sI1641
g1
((lp4922
I-1439
aI-1009
aI-417
atp4923
Rp4924
sI1642
g1
((lp4925
I-7
aI-287
atp4926
Rp4927
sI1643
g1
((lp4928
I-12
atp4929
Rp4930
sI1644
g1
((lp4931
I-312
aI-169
atp4932
Rp4933
sI1645
g1
((lp4934
I-1440
atp4935
Rp4936
sI1646
g1
((lp4937
I-11
aI-1444
aI-1443
aI-1442
aI-1441
atp4938
Rp4939
sI1647
g1
((lp4940
I-4
atp4941
Rp4942
sI1648
g1
((lp4943
I-1004
aI-4
atp4944
Rp4945
sI1649
g1
((lp4946
I-76
atp4947
Rp4948
sI1650
g1
((lp4949
I-1
atp4950
Rp4951
sI1651
g1
((lp4952
I-926
aI-149
aI-178
atp4953
Rp4954
sI1652
g1
((lp4955
I-11
atp4956
Rp4957
sI1653
g1
((lp4958
I-11
atp4959
Rp4960
sI1654
g1
((lp4961
I-24
aI-27
aI-26
aI-25
atp4962
Rp4963
sI1655
g1
((lp4964
I-75
aI-74
aI-73
atp4965
Rp4966
sI1656
g1
((lp4967
I-16
aI-1445
aI-29
aI-1446
atp4968
Rp4969
sI1657
g1
((lp4970
I-990
atp4971
Rp4972
sI1658
g1
((lp4973
I-1448
aI-1447
aI-1450
aI-1
aI-1449
atp4974
Rp4975
sI1659
g1
((lp4976
I-1
atp4977
Rp4978
sI1660
g1
((lp4979
I-2
aI-827
aI-1
atp4980
Rp4981
sI1661
g1
((lp4982
I-24
aI-27
aI-26
aI-25
atp4983
Rp4984
sI1662
g1
((lp4985
I-16
aI-1445
aI-29
aI-1446
atp4986
Rp4987
sI1663
g1
((lp4988
I-280
aI-279
aI-1
aI-281
atp4989
Rp4990
sI1664
g1
((lp4991
I-133
aI-4
atp4992
Rp4993
sI1665
g1
((lp4994
I-1452
aI-1451
aI-274
atp4995
Rp4996
sI1666
g1
((lp4997
I-1453
aI-11
aI-2
aI-1009
atp4998
Rp4999
sI1667
g1
((lp5000
I-1454
atp5001
Rp5002
sI1668
g1
((lp5003
I-24
aI-27
aI-26
aI-25
atp5004
Rp5005
sI1669
g1
((lp5006
I-87
atp5007
Rp5008
sI1670
g1
((lp5009
I-1455
aI-142
atp5010
Rp5011
sI1671
g1
((lp5012
I-1
atp5013
Rp5014
sI1672
g1
((lp5015
I-29
atp5016
Rp5017
sI1673
g1
((lp5018
I-74
atp5019
Rp5020
sI1674
g1
((lp5021
I-192
atp5022
Rp5023
sI1675
g1
((lp5024
I-1456
aI-1457
atp5025
Rp5026
sI1676
g1
((lp5027
I-11
aI-10
aI-9
aI-8
aI-7
aI-6
aI-5
atp5028
Rp5029
sI1677
g1
((lp5030
I-1336
atp5031
Rp5032
sI1678
g1
((lp5033
I-141
atp5034
Rp5035
sI1679
g1
((lp5036
I-1463
aI-790
aI-1461
aI-1460
aI-1459
aI-1458
aI-390
aI-1462
aI-65
atp5037
Rp5038
sI1680
g1
((lp5039
I-1472
aI-1471
aI-1470
aI-1469
aI-1468
aI-1467
aI-1466
aI-1465
aI-1464
aI-1014
aI-45
aI-871
aI-930
aI-1473
atp5040
Rp5041
sI1681
g1
((lp5042
I-1115
atp5043
Rp5044
sI1682
g1
((lp5045
I-1
atp5046
Rp5047
sI1683
g1
((lp5048
I-29
atp5049
Rp5050
sI1684
g1
((lp5051
I-29
atp5052
Rp5053
sI1685
g1
((lp5054
I-29
atp5055
Rp5056
sI1686
g1
((lp5057
I-1475
aI-1474
atp5058
Rp5059
sI1687
g1
((lp5060
I-1
atp5061
Rp5062
sI1688
g1
((lp5063
I-192
atp5064
Rp5065
sI1689
g1
((lp5066
I-1477
aI-1478
aI-45
aI-1476
atp5067
Rp5068
sI1690
g1
((lp5069
I-141
aI-1484
aI-1483
aI-1482
aI-1481
aI-1480
aI-1479
atp5070
Rp5071
sI1691
g1
((lp5072
I-7
aI-1228
aI-1
atp5073
Rp5074
sI1692
g1
((lp5075
I-1
atp5076
Rp5077
sI1693
g1
((lp5078
I-1486
aI-1485
aI-51
atp5079
Rp5080
sI1694
g1
((lp5081
I-1
atp5082
Rp5083
sI1695
g1
((lp5084
I-1488
aI-1487
aI-45
aI-1490
aI-1489
atp5085
Rp5086
sI1696
g1
((lp5087
I-24
aI-27
aI-26
aI-25
atp5088
Rp5089
sI1697
g1
((lp5090
I-11
aI-10
aI-9
aI-8
aI-7
aI-6
atp5091
Rp5092
sI1698
g1
((lp5093
I-1496
aI-1175
aI-1494
aI-1493
aI-1492
aI-1491
aI-1495
aI-131
atp5094
Rp5095
sI1699
g1
((lp5096
I-424
aI-29
aI-427
aI-426
aI-425
atp5097
Rp5098
sI1700
g1
((lp5099
I-1499
aI-122
aI-1497
aI-1498
aI-339
aI-135
atp5100
Rp5101
sI1701
g1
((lp5102
I-29
atp5103
Rp5104
sI1702
g1
((lp5105
I-232
aI-83
aI-1
atp5106
Rp5107
sI1703
g1
((lp5108
I-133
aI-4
atp5109
Rp5110
sI1704
g1
((lp5111
I-29
atp5112
Rp5113
sI1705
g1
((lp5114
I-1463
aI-790
aI-1461
aI-1460
aI-1459
aI-1458
aI-390
aI-1462
aI-65
atp5115
Rp5116
sI1706
g1
((lp5117
I-142
aI-1500
atp5118
Rp5119
sI1707
g1
((lp5120
I-1376
aI-6
atp5121
Rp5122
sI1708
g1
((lp5123
I-1501
aI-141
atp5124
Rp5125
sI1709
g1
((lp5126
I-160
aI-159
aI-27
aI-161
atp5127
Rp5128
sI1710
g1
((lp5129
I-45
aI-180
aI-179
atp5130
Rp5131
sI1711
g1
((lp5132
I-24
aI-27
aI-26
aI-25
atp5133
Rp5134
sI1712
g1
((lp5135
I-894
aI-1502
atp5136
Rp5137
sI1713
g1
((lp5138
I-1
atp5139
Rp5140
sI1714
g1
((lp5141
I-11
atp5142
Rp5143
sI1715
g1
((lp5144
I-24
aI-27
aI-26
aI-25
atp5145
Rp5146
sI1716
g1
((lp5147
I-11
aI-10
aI-9
aI-8
aI-7
aI-6
atp5148
Rp5149
sI1717
g1
((lp5150
I-62
aI-4
atp5151
Rp5152
sI1718
g1
((lp5153
I-1503
aI-62
aI-4
atp5154
Rp5155
sI1719
g1
((lp5156
I-45
aI-180
aI-179
atp5157
Rp5158
sI1720
g1
((lp5159
I-29
atp5160
Rp5161
sI1721
g1
((lp5162
I-133
aI-4
atp5163
Rp5164
sI1722
g1
((lp5165
I-1504
aI-142
atp5166
Rp5167
sI1723
g1
((lp5168
I-1
atp5169
Rp5170
sI1724
g1
((lp5171
I-148
atp5172
Rp5173
sI1725
g1
((lp5174
I-574
aI-45
aI-577
aI-1506
aI-1505
atp5175
Rp5176
sI1726
g1
((lp5177
I-11
aI-618
atp5178
Rp5179
sI1727
g1
((lp5180
I-45
aI-618
atp5181
Rp5182
sI1728
g1
((lp5183
I-45
aI-618
atp5184
Rp5185
sI1729
g1
((lp5186
I-360
aI-359
atp5187
Rp5188
sI1730
g1
((lp5189
I-45
aI-618
atp5190
Rp5191
sI1731
g1
((lp5192
I-1
atp5193
Rp5194
sI1732
g1
((lp5195
I-45
aI-618
atp5196
Rp5197
sI1733
g1
((lp5198
I-45
aI-618
atp5199
Rp5200
sI1734
g1
((lp5201
I-45
aI-618
atp5202
Rp5203
sI1735
g1
((lp5204
I-567
atp5205
Rp5206
sI1736
g1
((lp5207
I-45
aI-618
atp5208
Rp5209
sI1737
g1
((lp5210
I-32
aI-68
aI-1509
aI-4
aI-1507
aI-1508
atp5211
Rp5212
sI1738
g1
((lp5213
I-45
aI-618
atp5214
Rp5215
sI1739
g1
((lp5216
I-45
aI-618
atp5217
Rp5218
sI1740
g1
((lp5219
I-24
aI-27
aI-26
aI-25
atp5220
Rp5221
sI1741
g1
((lp5222
I-45
aI-618
atp5223
Rp5224
sI1742
g1
((lp5225
I-45
aI-618
atp5226
Rp5227
sI1743
g1
((lp5228
I-45
aI-618
atp5229
Rp5230
sI1744
g1
((lp5231
I-45
aI-618
atp5232
Rp5233
sI1745
g1
((lp5234
I-45
aI-618
atp5235
Rp5236
sI1746
g1
((lp5237
I-45
aI-618
atp5238
Rp5239
sI1747
g1
((lp5240
I-45
aI-618
atp5241
Rp5242
sI1748
g1
((lp5243
I-45
aI-618
atp5244
Rp5245
sI1749
g1
((lp5246
I-45
aI-618
atp5247
Rp5248
sI1750
g1
((lp5249
I-45
aI-618
atp5250
Rp5251
sI1751
g1
((lp5252
I-45
aI-618
atp5253
Rp5254
sI1752
g1
((lp5255
I-45
aI-618
atp5256
Rp5257
sI1753
g1
((lp5258
I-45
aI-618
atp5259
Rp5260
sI1754
g1
((lp5261
I-45
aI-618
atp5262
Rp5263
sI1755
g1
((lp5264
I-45
aI-618
atp5265
Rp5266
sI1756
g1
((lp5267
I-45
aI-618
atp5268
Rp5269
sI1757
g1
((lp5270
I-45
aI-618
atp5271
Rp5272
sI1758
g1
((lp5273
I-45
aI-618
atp5274
Rp5275
sI1759
g1
((lp5276
I-1512
aI-1511
aI-1510
aI-1
atp5277
Rp5278
sI1760
g1
((lp5279
I-178
atp5280
Rp5281
sI1761
g1
((lp5282
I-45
aI-618
atp5283
Rp5284
sI1762
g1
((lp5285
I-1
atp5286
Rp5287
sI1763
g1
((lp5288
I-45
aI-618
atp5289
Rp5290
sI1764
g1
((lp5291
I-927
aI-1513
atp5292
Rp5293
sI1765
g1
((lp5294
I-2
atp5295
Rp5296
sI1766
g1
((lp5297
I-74
atp5298
Rp5299
sI1767
g1
((lp5300
I-3
aI-2
atp5301
Rp5302
sI1768
g1
((lp5303
I-312
aI-1520
aI-1519
aI-1518
aI-1517
aI-1516
aI-1515
aI-1514
atp5304
Rp5305
sI1769
g1
((lp5306
I-65
aI-1523
aI-1522
aI-1521
atp5307
Rp5308
sI1770
g1
((lp5309
I-29
atp5310
Rp5311
sI1771
g1
((lp5312
I-24
aI-27
aI-26
aI-25
atp5313
Rp5314
sI1772
g1
((lp5315
I-192
aI-1524
atp5316
Rp5317
sI1773
g1
((lp5318
I-303
aI-1526
aI-1525
aI-49
atp5319
Rp5320
sI1774
g1
((lp5321
I-192
aI-1524
atp5322
Rp5323
sI1775
g1
((lp5324
I-1528
aI-1527
aI-1115
atp5325
Rp5326
sI1776
g1
((lp5327
I-24
aI-27
aI-26
aI-25
atp5328
Rp5329
sI1777
g1
((lp5330
I-11
aI-10
aI-9
aI-8
aI-7
aI-6
aI-5
atp5331
Rp5332
sI1778
g1
((lp5333
I-1191
aI-1529
atp5334
Rp5335
sI1779
g1
((lp5336
I-1530
atp5337
Rp5338
sI1780
g1
((lp5339
I-1534
aI-1533
aI-1532
aI-1531
aI-1426
atp5340
Rp5341
sI1781
g1
((lp5342
I-24
aI-27
aI-26
aI-25
atp5343
Rp5344
sI1782
g1
((lp5345
I-1535
aI-1390
aI-65
atp5346
Rp5347
sI1783
g1
((lp5348
I-7
atp5349
Rp5350
sI1784
g1
((lp5351
I-51
aI-178
aI-11
atp5352
Rp5353
sI1785
g1
((lp5354
I-2
atp5355
Rp5356
sI1786
g1
((lp5357
I-1
atp5358
Rp5359
sI1787
g1
((lp5360
I-11
aI-10
aI-9
aI-8
aI-7
aI-6
atp5361
Rp5362
sI1788
g1
((lp5363
I-1536
aI-39
aI-4
aI-1538
aI-1537
atp5364
Rp5365
sI1789
g1
((lp5366
I-585
atp5367
Rp5368
sI1790
g1
((lp5369
I-437
aI-1539
atp5370
Rp5371
sI1791
g1
((lp5372
I-1
atp5373
Rp5374
sI1792
g1
((lp5375
I-28
atp5376
Rp5377
sI1793
g1
((lp5378
I-29
atp5379
Rp5380
sI1794
g1
((lp5381
I-141
aI-1540
atp5382
Rp5383
sI1795
g1
((lp5384
I-1
atp5385
Rp5386
sI1796
g1
((lp5387
I-192
atp5388
Rp5389
sI1797
g1
((lp5390
I-62
aI-4
atp5391
Rp5392
sI1798
g1
((lp5393
I-29
atp5394
Rp5395
sI1799
g1
((lp5396
I-1046
aI-65
atp5397
Rp5398
sI1800
g1
((lp5399
I-96
aI-245
atp5400
Rp5401
sI1801
g1
((lp5402
I-28
atp5403
Rp5404
sI1802
g1
((lp5405
I-718
aI-45
atp5406
Rp5407
sI1803
g1
((lp5408
I-1542
aI-1541
atp5409
Rp5410
sI1804
g1
((lp5411
I-1543
atp5412
Rp5413
sI1805
g1
((lp5414
I-96
aI-245
atp5415
Rp5416
sI1806
g1
((lp5417
I-24
aI-27
aI-26
aI-25
atp5418
Rp5419
sI1807
g1
((lp5420
I-51
aI-178
aI-11
atp5421
Rp5422
sI1808
g1
((lp5423
I-82
atp5424
Rp5425
sI1809
g1
((lp5426
I-75
aI-74
aI-73
atp5427
Rp5428
sI1810
g1
((lp5429
I-1544
aI-1
atp5430
Rp5431
sI1811
g1
((lp5432
I-142
aI-149
atp5433
Rp5434
sI1812
g1
((lp5435
I-55
aI-908
aI-1
atp5436
Rp5437
sI1813
g1
((lp5438
I-1
atp5439
Rp5440
sI1814
g1
((lp5441
I-1549
aI-1550
aI-141
aI-1548
aI-1547
aI-1546
aI-1545
aI-936
aI-230
atp5442
Rp5443
sI1815
g1
((lp5444
I-29
atp5445
Rp5446
sI1816
g1
((lp5447
I-29
aI-259
atp5448
Rp5449
sI1817
g1
((lp5450
I-29
atp5451
Rp5452
sI1818
g1
((lp5453
I-606
aI-818
atp5454
Rp5455
sI1819
g1
((lp5456
I-7
aI-287
atp5457
Rp5458
sI1820
g1
((lp5459
I-1
atp5460
Rp5461
sI1821
g1
((lp5462
I-141
atp5463
Rp5464
sI1822
g1
((lp5465
I-24
aI-27
aI-26
aI-25
atp5466
Rp5467
sI1823
g1
((lp5468
I-1551
aI-350
aI-29
atp5469
Rp5470
sI1824
g1
((lp5471
I-1
atp5472
Rp5473
sI1825
g1
((lp5474
I-1552
aI-4
atp5475
Rp5476
sI1826
g1
((lp5477
I-1456
aI-1553
atp5478
Rp5479
sI1827
g1
((lp5480
I-781
aI-780
aI-779
aI-778
atp5481
Rp5482
sI1828
g1
((lp5483
I-1
atp5484
Rp5485
sI1829
g1
((lp5486
I-24
aI-27
aI-26
aI-25
atp5487
Rp5488
sI1830
g1
((lp5489
I-510
aI-509
aI-508
aI-507
aI-506
aI-505
aI-83
atp5490
Rp5491
sI1831
g1
((lp5492
I-75
aI-74
aI-73
atp5493
Rp5494
sI1832
g1
((lp5495
I-192
aI-1554
atp5496
Rp5497
sI1833
g1
((lp5498
I-141
atp5499
Rp5500
sI1834
g1
((lp5501
I-64
aI-178
atp5502
Rp5503
sI1835
g1
((lp5504
I-62
aI-4
atp5505
Rp5506
sI1836
g1
((lp5507
I-1555
atp5508
Rp5509
sI1837
g1
((lp5510
I-87
aI-1556
aI-75
atp5511
Rp5512
sI1838
g1
((lp5513
I-192
atp5514
Rp5515
sI1839
g1
((lp5516
I-148
atp5517
Rp5518
sI1840
g1
((lp5519
I-1558
aI-1557
atp5520
Rp5521
sI1841
g1
((lp5522
I-1370
atp5523
Rp5524
sI1842
g1
((lp5525
I-24
aI-27
aI-26
aI-25
atp5526
Rp5527
sI1843
g1
((lp5528
I-160
aI-159
aI-27
aI-161
atp5529
Rp5530
sI1844
g1
((lp5531
I-11
aI-145
atp5532
Rp5533
sI1845
g1
((lp5534
I-1
atp5535
Rp5536
sI1846
g1
((lp5537
I-2
atp5538
Rp5539
sI1847
g1
((lp5540
I-1559
aI-11
aI-202
aI-1455
atp5541
Rp5542
sI1848
g1
((lp5543
I-7
aI-287
atp5544
Rp5545
sI1849
g1
((lp5546
I-175
atp5547
Rp5548
sI1850
g1
((lp5549
I-23
aI-11
atp5550
Rp5551
sI1851
g1
((lp5552
I-1566
aI-1565
aI-1564
aI-1563
aI-1562
aI-1561
aI-1560
aI-45
atp5553
Rp5554
sI1852
g1
((lp5555
I-1
atp5556
Rp5557
sI1853
g1
((lp5558
I-1112
aI-1111
aI-11
aI-2
atp5559
Rp5560
sI1854
g1
((lp5561
I-29
atp5562
Rp5563
sI1855
g1
((lp5564
I-1568
aI-1567
aI-1571
aI-779
aI-1572
aI-3
aI-1570
aI-1569
atp5565
Rp5566
sI1856
g1
((lp5567
I-3
aI-2
atp5568
Rp5569
sI1857
g1
((lp5570
I-141
aI-293
atp5571
Rp5572
sI1858
g1
((lp5573
I-160
aI-159
aI-27
aI-161
atp5574
Rp5575
sI1859
g1
((lp5576
I-3
aI-2
atp5577
Rp5578
sI1860
g1
((lp5579
I-4
atp5580
Rp5581
sI1861
g1
((lp5582
I-990
atp5583
Rp5584
sI1862
g1
((lp5585
I-1
atp5586
Rp5587
sI1863
g1
((lp5588
I-2
atp5589
Rp5590
sI1864
g1
((lp5591
I-7
atp5592
Rp5593
sI1865
g1
((lp5594
I-24
aI-27
aI-26
aI-25
atp5595
Rp5596
sI1866
g1
((lp5597
I-1576
aI-1575
aI-1574
aI-1573
aI-1037
atp5598
Rp5599
sI1867
g1
((lp5600
I-7
atp5601
Rp5602
sI1868
g1
((lp5603
I-1191
atp5604
Rp5605
sI1869
g1
((lp5606
I-567
atp5607
Rp5608
sI1870
g1
((lp5609
I-141
atp5610
Rp5611
sI1871
g1
((lp5612
I-1463
aI-790
aI-1461
aI-1460
aI-1459
aI-1458
aI-390
aI-1462
aI-65
atp5613
Rp5614
sI1872
g1
((lp5615
I-1
atp5616
Rp5617
sI1873
g1
((lp5618
I-1
atp5619
Rp5620
sI1874
g1
((lp5621
I-668
aI-141
aI-1580
aI-1579
aI-1578
aI-1577
atp5622
Rp5623
sI1875
g1
((lp5624
I-1581
aI-2
atp5625
Rp5626
sI1876
g1
((lp5627
I-1583
aI-1582
aI-60
atp5628
Rp5629
sI1877
g1
((lp5630
I-896
aI-895
aI-353
atp5631
Rp5632
sI1878
g1
((lp5633
I-1584
aI-11
aI-1539
aI-1585
atp5634
Rp5635
sI1879
g1
((lp5636
I-1
atp5637
Rp5638
sI1880
g1
((lp5639
I-96
aI-1586
atp5640
Rp5641
sI1881
g1
((lp5642
I-1
atp5643
Rp5644
sI1882
g1
((lp5645
I-1207
aI-11
atp5646
Rp5647
sI1883
g1
((lp5648
I-1588
aI-1587
aI-82
atp5649
Rp5650
sI1884
g1
((lp5651
I-1
atp5652
Rp5653
sI1885
g1
((lp5654
I-4
atp5655
Rp5656
sI1886
g1
((lp5657
I-1589
aI-141
atp5658
Rp5659
sI1887
g1
((lp5660
I-28
atp5661
Rp5662
sI1888
g1
((lp5663
I-11
atp5664
Rp5665
sI1889
g1
((lp5666
I-8
aI-7
aI-6
aI-10
aI-9
atp5667
Rp5668
sI1890
g1
((lp5669
I-1590
aI-45
atp5670
Rp5671
sI1891
g1
((lp5672
I-2
atp5673
Rp5674
sI1892
g1
((lp5675
I-1
atp5676
Rp5677
sI1893
g1
((lp5678
I-4
atp5679
Rp5680
sI1894
g1
((lp5681
I-1600
aI-1599
aI-1598
aI-1597
aI-1596
aI-602
aI-1594
aI-1593
aI-1592
aI-1591
aI-1401
aI-142
aI-1595
atp5682
Rp5683
sI1895
g1
((lp5684
I-1600
aI-1599
aI-1598
aI-1597
aI-1596
aI-602
aI-1594
aI-1593
aI-1592
aI-1591
aI-1401
aI-142
aI-1595
atp5685
Rp5686
sI1896
g1
((lp5687
I-1600
aI-1599
aI-1598
aI-1597
aI-1596
aI-602
aI-1594
aI-1593
aI-1592
aI-1591
aI-1401
aI-142
aI-1595
atp5688
Rp5689
sI1897
g1
((lp5690
I-51
aI-11
aI-10
aI-9
aI-8
aI-7
aI-6
atp5691
Rp5692
sI1898
g1
((lp5693
I-1
atp5694
Rp5695
sI1899
g1
((lp5696
I-1
atp5697
Rp5698
sI1900
g1
((lp5699
I-3
aI-2
atp5700
Rp5701
sI1901
g1
((lp5702
I-4
aI-1601
atp5703
Rp5704
sI1902
g1
((lp5705
I-1
atp5706
Rp5707
sI1903
g1
((lp5708
I-1600
aI-1599
aI-1598
aI-1597
aI-1596
aI-602
aI-1594
aI-1593
aI-1592
aI-1591
aI-1401
aI-142
aI-1595
atp5709
Rp5710
sI1904
g1
((lp5711
I-96
aI-638
aI-245
aI-1603
aI-1602
atp5712
Rp5713
sI1905
g1
((lp5714
I-48
aI-355
atp5715
Rp5716
sI1906
g1
((lp5717
I-11
atp5718
Rp5719
sI1907
g1
((lp5720
I-29
atp5721
Rp5722
sI1908
g1
((lp5723
I-879
aI-878
aI-1604
aI-851
aI-65
atp5724
Rp5725
sI1909
g1
((lp5726
I-311
aI-1606
aI-1605
aI-156
aI-1607
atp5727
Rp5728
sI1910
g1
((lp5729
I-1608
aI-87
aI-1011
atp5730
Rp5731
sI1911
g1
((lp5732
I-1
atp5733
Rp5734
sI1912
g1
((lp5735
I-149
aI-1609
atp5736
Rp5737
sI1913
g1
((lp5738
I-128
aI-1610
atp5739
Rp5740
sI1914
g1
((lp5741
I-7
atp5742
Rp5743
sI1915
g1
((lp5744
I-1
atp5745
Rp5746
sI1916
g1
((lp5747
I-96
aI-638
aI-245
aI-1603
aI-1602
atp5748
Rp5749
sI1917
g1
((lp5750
I-736
aI-735
aI-734
atp5751
Rp5752
sI1918
g1
((lp5753
I-1552
aI-4
atp5754
Rp5755
sI1919
g1
((lp5756
I-169
aI-43
aI-1611
atp5757
Rp5758
sI1920
g1
((lp5759
I-86
aI-1612
atp5760
Rp5761
sI1921
g1
((lp5762
I-82
atp5763
Rp5764
sI1922
g1
((lp5765
I-4
atp5766
Rp5767
sI1923
g1
((lp5768
I-76
aI-74
atp5769
Rp5770
sI1924
g1
((lp5771
I-7
aI-1613
aI-50
atp5772
Rp5773
sI1925
g1
((lp5774
I-76
aI-74
atp5775
Rp5776
sI1926
g1
((lp5777
I-1619
aI-1618
aI-1617
aI-1616
aI-1615
aI-1614
atp5778
Rp5779
sI1927
g1
((lp5780
I-1
atp5781
Rp5782
sI1928
g1
((lp5783
I-156
aI-1626
aI-282
aI-1625
aI-1624
aI-1623
aI-1622
aI-1621
aI-1620
atp5784
Rp5785
sI1929
g1
((lp5786
I-1228
aI-1
atp5787
Rp5788
sI1930
g1
((lp5789
I-29
aI-1627
atp5790
Rp5791
sI1931
g1
((lp5792
I-1629
aI-1628
aI-65
atp5793
Rp5794
sI1932
g1
((lp5795
I-234
atp5796
Rp5797
sI1933
g1
((lp5798
I-303
aI-1526
aI-1631
aI-1630
aI-321
atp5799
Rp5800
sI1934
g1
((lp5801
I-1632
aI-301
atp5802
Rp5803
sI1935
g1
((lp5804
I-29
aI-1637
aI-1636
aI-1635
aI-1634
aI-1633
atp5805
Rp5806
sI1936
g1
((lp5807
I-24
aI-27
aI-26
aI-25
atp5808
Rp5809
sI1937
g1
((lp5810
I-1009
atp5811
Rp5812
sI1938
g1
((lp5813
I-1638
aI-29
atp5814
Rp5815
sI1939
g1
((lp5816
I-28
atp5817
Rp5818
sI1940
g1
((lp5819
I-29
atp5820
Rp5821
sI1941
g1
((lp5822
I-232
aI-83
aI-1
atp5823
Rp5824
sI1942
g1
((lp5825
I-7
atp5826
Rp5827
sI1943
g1
((lp5828
I-29
atp5829
Rp5830
sI1944
g1
((lp5831
I-62
aI-4
atp5832
Rp5833
sI1945
g1
((lp5834
I-536
aI-7
aI-535
atp5835
Rp5836
sI1946
g1
((lp5837
I-11
atp5838
Rp5839
sI1947
g1
((lp5840
I-1638
aI-29
atp5841
Rp5842
sI1948
g1
((lp5843
I-24
aI-27
aI-26
aI-25
atp5844
Rp5845
sI1949
g1
((lp5846
I-1638
aI-29
atp5847
Rp5848
sI1950
g1
((lp5849
I-127
aI-126
aI-125
atp5850
Rp5851
sI1951
g1
((lp5852
I-28
atp5853
Rp5854
sI1952
g1
((lp5855
I-1638
aI-29
atp5856
Rp5857
sI1953
g1
((lp5858
I-24
aI-27
aI-26
aI-25
atp5859
Rp5860
sI1954
g1
((lp5861
I-128
aI-1639
atp5862
Rp5863
sI1955
g1
((lp5864
I-502
aI-1646
aI-1645
aI-1644
aI-1643
aI-1642
aI-1641
aI-1640
aI-65
atp5865
Rp5866
sI1956
g1
((lp5867
I-45
aI-180
aI-179
atp5868
Rp5869
sI1957
g1
((lp5870
I-29
atp5871
Rp5872
sI1958
g1
((lp5873
I-1647
aI-29
atp5874
Rp5875
sI1959
g1
((lp5876
I-1376
aI-11
aI-2
atp5877
Rp5878
sI1960
g1
((lp5879
I-1638
aI-29
atp5880
Rp5881
sI1961
g1
((lp5882
I-32
aI-1650
aI-1649
aI-1648
aI-1509
aI-962
aI-65
atp5883
Rp5884
sI1962
g1
((lp5885
I-11
atp5886
Rp5887
sI1963
g1
((lp5888
I-444
aI-1653
aI-1652
aI-1651
aI-135
aI-348
aI-133
atp5889
Rp5890
sI1964
g1
((lp5891
I-138
atp5892
Rp5893
sI1965
g1
((lp5894
I-29
atp5895
Rp5896
sI1966
g1
((lp5897
I-87
aI-1654
aI-7
atp5898
Rp5899
sI1967
g1
((lp5900
I-1
atp5901
Rp5902
sI1968
g1
((lp5903
I-29
atp5904
Rp5905
sI1969
g1
((lp5906
I-1638
aI-29
atp5907
Rp5908
sI1970
g1
((lp5909
I-4
atp5910
Rp5911
sI-1636
g1
((lp5912
I1935
atp5913
Rp5914
sI-1654
g1
((lp5915
I1966
atp5916
Rp5917
sI-1653
g1
((lp5918
I1963
atp5919
Rp5920
sI-1652
g1
((lp5921
I1963
atp5922
Rp5923
sI-1651
g1
((lp5924
I1963
atp5925
Rp5926
sI-1650
g1
((lp5927
I1961
atp5928
Rp5929
sI-1649
g1
((lp5930
I1961
atp5931
Rp5932
sI-1648
g1
((lp5933
I1961
atp5934
Rp5935
sI-1647
g1
((lp5936
I1958
atp5937
Rp5938
sI-1646
g1
((lp5939
I1955
atp5940
Rp5941
sI-1645
g1
((lp5942
I1955
atp5943
Rp5944
sI-1644
g1
((lp5945
I1955
atp5946
Rp5947
sI-1643
g1
((lp5948
I1955
atp5949
Rp5950
sI-1642
g1
((lp5951
I1955
atp5952
Rp5953
sI-1641
g1
((lp5954
I1955
atp5955
Rp5956
sI-1640
g1
((lp5957
I1955
atp5958
Rp5959
sI-1639
g1
((lp5960
I1954
atp5961
Rp5962
sI-1638
g1
((lp5963
I1952
aI1960
aI1969
aI1938
aI1947
aI1949
atp5964
Rp5965
sI-1637
g1
((lp5966
I1935
atp5967
Rp5968
sI-1375
g1
((lp5969
I1487
atp5970
Rp5971
sI-1635
g1
((lp5972
I1935
atp5973
Rp5974
sI-1634
g1
((lp5975
I1935
atp5976
Rp5977
sI-1633
g1
((lp5978
I1935
atp5979
Rp5980
sI-1632
g1
((lp5981
I1934
atp5982
Rp5983
sI-1631
g1
((lp5984
I1933
atp5985
Rp5986
sI-1630
g1
((lp5987
I1933
atp5988
Rp5989
sI-1629
g1
((lp5990
I1931
atp5991
Rp5992
sI-1628
g1
((lp5993
I1931
atp5994
Rp5995
sI-1627
g1
((lp5996
I1930
atp5997
Rp5998
sI-1626
g1
((lp5999
I1928
atp6000
Rp6001
sI-1625
g1
((lp6002
I1928
atp6003
Rp6004
sI-1624
g1
((lp6005
I1928
atp6006
Rp6007
sI-1623
g1
((lp6008
I1928
atp6009
Rp6010
sI-1622
g1
((lp6011
I1928
atp6012
Rp6013
sI-1621
g1
((lp6014
I1928
atp6015
Rp6016
sI-1620
g1
((lp6017
I1928
atp6018
Rp6019
sI-1619
g1
((lp6020
I1926
atp6021
Rp6022
sI-1618
g1
((lp6023
I1926
atp6024
Rp6025
sI-1617
g1
((lp6026
I1926
atp6027
Rp6028
sI-1616
g1
((lp6029
I1926
atp6030
Rp6031
sI-1615
g1
((lp6032
I1926
atp6033
Rp6034
sI-1614
g1
((lp6035
I1926
atp6036
Rp6037
sI-1613
g1
((lp6038
I1924
atp6039
Rp6040
sI-1612
g1
((lp6041
I1920
atp6042
Rp6043
sI-1611
g1
((lp6044
I1919
atp6045
Rp6046
sI-1610
g1
((lp6047
I1913
atp6048
Rp6049
sI-1609
g1
((lp6050
I1912
atp6051
Rp6052
sI-1608
g1
((lp6053
I1910
atp6054
Rp6055
sI-1607
g1
((lp6056
I1909
atp6057
Rp6058
sI-1606
g1
((lp6059
I1909
atp6060
Rp6061
sI-1605
g1
((lp6062
I1909
atp6063
Rp6064
sI-1604
g1
((lp6065
I1908
atp6066
Rp6067
sI-1603
g1
((lp6068
I1904
aI1916
atp6069
Rp6070
sI-1602
g1
((lp6071
I1904
aI1916
atp6072
Rp6073
sI-1601
g1
((lp6074
I1901
atp6075
Rp6076
sI-1600
g1
((lp6077
I1896
aI1903
aI1894
aI1895
atp6078
Rp6079
sI-1599
g1
((lp6080
I1896
aI1903
aI1894
aI1895
atp6081
Rp6082
sI-1598
g1
((lp6083
I1896
aI1903
aI1894
aI1895
atp6084
Rp6085
sI-1597
g1
((lp6086
I1896
aI1903
aI1894
aI1895
atp6087
Rp6088
sI-1596
g1
((lp6089
I1896
aI1903
aI1894
aI1895
atp6090
Rp6091
sI-1595
g1
((lp6092
I1896
aI1903
aI1894
aI1895
atp6093
Rp6094
sI-1594
g1
((lp6095
I1896
aI1903
aI1894
aI1895
atp6096
Rp6097
sI-1593
g1
((lp6098
I1896
aI1903
aI1894
aI1895
atp6099
Rp6100
sI-1592
g1
((lp6101
I1896
aI1903
aI1894
aI1895
atp6102
Rp6103
sI-1591
g1
((lp6104
I1896
aI1903
aI1894
aI1895
atp6105
Rp6106
sI-1590
g1
((lp6107
I1890
atp6108
Rp6109
sI-1589
g1
((lp6110
I1886
atp6111
Rp6112
sI-1588
g1
((lp6113
I1883
atp6114
Rp6115
sI-1587
g1
((lp6116
I1883
atp6117
Rp6118
sI-1586
g1
((lp6119
I1880
atp6120
Rp6121
sI-1585
g1
((lp6122
I1878
atp6123
Rp6124
sI-1584
g1
((lp6125
I1878
atp6126
Rp6127
sI-1583
g1
((lp6128
I1876
atp6129
Rp6130
sI-1582
g1
((lp6131
I1876
atp6132
Rp6133
sI-1581
g1
((lp6134
I1875
atp6135
Rp6136
sI-1580
g1
((lp6137
I1874
atp6138
Rp6139
sI-1579
g1
((lp6140
I1874
atp6141
Rp6142
sI-1578
g1
((lp6143
I1874
atp6144
Rp6145
sI-1577
g1
((lp6146
I1874
atp6147
Rp6148
sI-1576
g1
((lp6149
I1866
atp6150
Rp6151
sI-1575
g1
((lp6152
I1866
atp6153
Rp6154
sI-1574
g1
((lp6155
I1866
atp6156
Rp6157
sI-1573
g1
((lp6158
I1866
atp6159
Rp6160
sI-1572
g1
((lp6161
I1855
atp6162
Rp6163
sI-1571
g1
((lp6164
I1855
atp6165
Rp6166
sI-1570
g1
((lp6167
I1855
atp6168
Rp6169
sI-1569
g1
((lp6170
I1855
atp6171
Rp6172
sI-1568
g1
((lp6173
I1855
atp6174
Rp6175
sI-1567
g1
((lp6176
I1855
atp6177
Rp6178
sI-1566
g1
((lp6179
I1851
atp6180
Rp6181
sI-1565
g1
((lp6182
I1851
atp6183
Rp6184
sI-1564
g1
((lp6185
I1851
atp6186
Rp6187
sI-1563
g1
((lp6188
I1851
atp6189
Rp6190
sI-1562
g1
((lp6191
I1851
atp6192
Rp6193
sI-1561
g1
((lp6194
I1851
atp6195
Rp6196
sI-1560
g1
((lp6197
I1851
atp6198
Rp6199
sI-1559
g1
((lp6200
I1847
atp6201
Rp6202
sI-1558
g1
((lp6203
I1840
atp6204
Rp6205
sI-1557
g1
((lp6206
I1840
atp6207
Rp6208
sI-1556
g1
((lp6209
I1837
atp6210
Rp6211
sI-1555
g1
((lp6212
I1836
atp6213
Rp6214
sI-1554
g1
((lp6215
I1832
atp6216
Rp6217
sI-1553
g1
((lp6218
I1826
atp6219
Rp6220
sI-1552
g1
((lp6221
I1825
aI1918
atp6222
Rp6223
sI-1551
g1
((lp6224
I1823
atp6225
Rp6226
sI-1550
g1
((lp6227
I1814
atp6228
Rp6229
sI-1549
g1
((lp6230
I1814
atp6231
Rp6232
sI-1548
g1
((lp6233
I1814
atp6234
Rp6235
sI-1547
g1
((lp6236
I1814
atp6237
Rp6238
sI-1546
g1
((lp6239
I1814
atp6240
Rp6241
sI-1545
g1
((lp6242
I1814
atp6243
Rp6244
sI-1544
g1
((lp6245
I1810
atp6246
Rp6247
sI-1543
g1
((lp6248
I1804
atp6249
Rp6250
sI-1542
g1
((lp6251
I1803
atp6252
Rp6253
sI-1541
g1
((lp6254
I1803
atp6255
Rp6256
sI-1540
g1
((lp6257
I1794
atp6258
Rp6259
sI-1539
g1
((lp6260
I1878
aI1790
atp6261
Rp6262
sI-1538
g1
((lp6263
I1788
atp6264
Rp6265
sI-1537
g1
((lp6266
I1788
atp6267
Rp6268
sI-1536
g1
((lp6269
I1788
atp6270
Rp6271
sI-1535
g1
((lp6272
I1782
atp6273
Rp6274
sI-1534
g1
((lp6275
I1780
atp6276
Rp6277
sI-1533
g1
((lp6278
I1780
atp6279
Rp6280
sI-1532
g1
((lp6281
I1780
atp6282
Rp6283
sI-1531
g1
((lp6284
I1780
atp6285
Rp6286
sI-1530
g1
((lp6287
I1779
atp6288
Rp6289
sI-1529
g1
((lp6290
I1778
atp6291
Rp6292
sI-1528
g1
((lp6293
I1775
atp6294
Rp6295
sI-1527
g1
((lp6296
I1775
atp6297
Rp6298
sI-1526
g1
((lp6299
I1773
aI1933
atp6300
Rp6301
sI-1525
g1
((lp6302
I1773
atp6303
Rp6304
sI-1524
g1
((lp6305
I1772
aI1774
atp6306
Rp6307
sI-1523
g1
((lp6308
I1769
atp6309
Rp6310
sI-1522
g1
((lp6311
I1769
atp6312
Rp6313
sI-1521
g1
((lp6314
I1769
atp6315
Rp6316
sI-1520
g1
((lp6317
I1768
atp6318
Rp6319
sI-1519
g1
((lp6320
I1768
atp6321
Rp6322
sI-1518
g1
((lp6323
I1768
atp6324
Rp6325
sI-1517
g1
((lp6326
I1768
atp6327
Rp6328
sI-1516
g1
((lp6329
I1768
atp6330
Rp6331
sI-1515
g1
((lp6332
I1768
atp6333
Rp6334
sI-1514
g1
((lp6335
I1768
atp6336
Rp6337
sI-1513
g1
((lp6338
I1764
atp6339
Rp6340
sI-1512
g1
((lp6341
I1759
atp6342
Rp6343
sI-1511
g1
((lp6344
I1759
atp6345
Rp6346
sI-1510
g1
((lp6347
I1759
atp6348
Rp6349
sI-1509
g1
((lp6350
I1737
aI1961
atp6351
Rp6352
sI-1508
g1
((lp6353
I1737
atp6354
Rp6355
sI-1507
g1
((lp6356
I1737
atp6357
Rp6358
sI-1506
g1
((lp6359
I1725
atp6360
Rp6361
sI-1505
g1
((lp6362
I1725
atp6363
Rp6364
sI-1504
g1
((lp6365
I1722
atp6366
Rp6367
sI-1503
g1
((lp6368
I1718
atp6369
Rp6370
sI-1502
g1
((lp6371
I1712
atp6372
Rp6373
sI-1501
g1
((lp6374
I1708
atp6375
Rp6376
sI-1500
g1
((lp6377
I1706
atp6378
Rp6379
sI-1499
g1
((lp6380
I1700
atp6381
Rp6382
sI-1498
g1
((lp6383
I1700
atp6384
Rp6385
sI-1497
g1
((lp6386
I1700
atp6387
Rp6388
sI-1496
g1
((lp6389
I1698
atp6390
Rp6391
sI-1495
g1
((lp6392
I1698
atp6393
Rp6394
sI-1494
g1
((lp6395
I1698
atp6396
Rp6397
sI-1493
g1
((lp6398
I1698
atp6399
Rp6400
sI-1492
g1
((lp6401
I1698
atp6402
Rp6403
sI-1491
g1
((lp6404
I1698
atp6405
Rp6406
sI-1490
g1
((lp6407
I1695
atp6408
Rp6409
sI-1489
g1
((lp6410
I1695
atp6411
Rp6412
sI-1488
g1
((lp6413
I1695
atp6414
Rp6415
sI-1487
g1
((lp6416
I1695
atp6417
Rp6418
sI-1486
g1
((lp6419
I1693
atp6420
Rp6421
sI-1485
g1
((lp6422
I1693
atp6423
Rp6424
sI-1484
g1
((lp6425
I1690
atp6426
Rp6427
sI-1483
g1
((lp6428
I1690
atp6429
Rp6430
sI-1482
g1
((lp6431
I1690
atp6432
Rp6433
sI-1481
g1
((lp6434
I1690
atp6435
Rp6436
sI-1480
g1
((lp6437
I1690
atp6438
Rp6439
sI-1479
g1
((lp6440
I1690
atp6441
Rp6442
sI-1478
g1
((lp6443
I1689
atp6444
Rp6445
sI-1477
g1
((lp6446
I1689
atp6447
Rp6448
sI-1476
g1
((lp6449
I1689
atp6450
Rp6451
sI-1475
g1
((lp6452
I1686
atp6453
Rp6454
sI-1474
g1
((lp6455
I1686
atp6456
Rp6457
sI-1473
g1
((lp6458
I1680
atp6459
Rp6460
sI-1472
g1
((lp6461
I1680
atp6462
Rp6463
sI-1471
g1
((lp6464
I1680
atp6465
Rp6466
sI-1470
g1
((lp6467
I1680
atp6468
Rp6469
sI-1469
g1
((lp6470
I1680
atp6471
Rp6472
sI-1468
g1
((lp6473
I1680
atp6474
Rp6475
sI-1467
g1
((lp6476
I1680
atp6477
Rp6478
sI-1466
g1
((lp6479
I1680
atp6480
Rp6481
sI-1465
g1
((lp6482
I1680
atp6483
Rp6484
sI-1464
g1
((lp6485
I1680
atp6486
Rp6487
sI-1463
g1
((lp6488
I1705
aI1871
aI1679
atp6489
Rp6490
sI-1462
g1
((lp6491
I1705
aI1871
aI1679
atp6492
Rp6493
sI-1461
g1
((lp6494
I1705
aI1871
aI1679
atp6495
Rp6496
sI-1460
g1
((lp6497
I1705
aI1871
aI1679
atp6498
Rp6499
sI-1459
g1
((lp6500
I1705
aI1871
aI1679
atp6501
Rp6502
sI-1458
g1
((lp6503
I1705
aI1871
aI1679
atp6504
Rp6505
sI-1457
g1
((lp6506
I1675
atp6507
Rp6508
sI-1456
g1
((lp6509
I1826
aI1675
atp6510
Rp6511
sI-1455
g1
((lp6512
I1670
aI1847
atp6513
Rp6514
sI-1454
g1
((lp6515
I1667
atp6516
Rp6517
sI-1453
g1
((lp6518
I1666
atp6519
Rp6520
sI-1452
g1
((lp6521
I1665
atp6522
Rp6523
sI-1451
g1
((lp6524
I1665
atp6525
Rp6526
sI-1450
g1
((lp6527
I1658
atp6528
Rp6529
sI-1449
g1
((lp6530
I1658
atp6531
Rp6532
sI-1448
g1
((lp6533
I1658
atp6534
Rp6535
sI-1447
g1
((lp6536
I1658
atp6537
Rp6538
sI-1446
g1
((lp6539
I1656
aI1662
atp6540
Rp6541
sI-1445
g1
((lp6542
I1656
aI1662
atp6543
Rp6544
sI-1444
g1
((lp6545
I1646
atp6546
Rp6547
sI-1443
g1
((lp6548
I1646
atp6549
Rp6550
sI-1442
g1
((lp6551
I1646
atp6552
Rp6553
sI-1441
g1
((lp6554
I1646
atp6555
Rp6556
sI-1440
g1
((lp6557
I1645
atp6558
Rp6559
sI-1439
g1
((lp6560
I1641
atp6561
Rp6562
sI-1438
g1
((lp6563
I1637
atp6564
Rp6565
sI-1437
g1
((lp6566
I1636
atp6567
Rp6568
sI-1436
g1
((lp6569
I1636
atp6570
Rp6571
sI-1435
g1
((lp6572
I1634
atp6573
Rp6574
sI-1434
g1
((lp6575
I1628
atp6576
Rp6577
sI-1433
g1
((lp6578
I1619
atp6579
Rp6580
sI-1432
g1
((lp6581
I1619
atp6582
Rp6583
sI-1431
g1
((lp6584
I1619
atp6585
Rp6586
sI-1430
g1
((lp6587
I1608
atp6588
Rp6589
sI-1429
g1
((lp6590
I1608
atp6591
Rp6592
sI-1428
g1
((lp6593
I1606
atp6594
Rp6595
sI-1427
g1
((lp6596
I1606
atp6597
Rp6598
sI-1426
g1
((lp6599
I1603
aI1780
atp6600
Rp6601
sI-1425
g1
((lp6602
I1601
atp6603
Rp6604
sI-1424
g1
((lp6605
I1599
atp6606
Rp6607
sI-1423
g1
((lp6608
I1594
atp6609
Rp6610
sI-1422
g1
((lp6611
I1586
aI1587
atp6612
Rp6613
sI-1421
g1
((lp6614
I1584
atp6615
Rp6616
sI-1420
g1
((lp6617
I1582
atp6618
Rp6619
sI-1419
g1
((lp6620
I1582
atp6621
Rp6622
sI-1418
g1
((lp6623
I1582
atp6624
Rp6625
sI-1417
g1
((lp6626
I1574
atp6627
Rp6628
sI-1416
g1
((lp6629
I1574
atp6630
Rp6631
sI-1415
g1
((lp6632
I1573
atp6633
Rp6634
sI-1414
g1
((lp6635
I1568
atp6636
Rp6637
sI-1413
g1
((lp6638
I1567
atp6639
Rp6640
sI-1412
g1
((lp6641
I1565
atp6642
Rp6643
sI-1411
g1
((lp6644
I1557
atp6645
Rp6646
sI-1410
g1
((lp6647
I1554
atp6648
Rp6649
sI-1409
g1
((lp6650
I1554
atp6651
Rp6652
sI-1408
g1
((lp6653
I1550
atp6654
Rp6655
sI-1407
g1
((lp6656
I1550
atp6657
Rp6658
sI-1406
g1
((lp6659
I1550
atp6660
Rp6661
sI-1405
g1
((lp6662
I1550
atp6663
Rp6664
sI-1404
g1
((lp6665
I1545
atp6666
Rp6667
sI-1403
g1
((lp6668
I1545
atp6669
Rp6670
sI-1402
g1
((lp6671
I1545
atp6672
Rp6673
sI-1401
g1
((lp6674
I1896
aI1545
aI1903
aI1894
aI1895
atp6675
Rp6676
sI-1400
g1
((lp6677
I1545
atp6678
Rp6679
sI-1399
g1
((lp6680
I1545
atp6681
Rp6682
sI-1398
g1
((lp6683
I1540
atp6684
Rp6685
sI-1397
g1
((lp6686
I1536
aI1537
aI1539
aI1544
atp6687
Rp6688
sI-1396
g1
((lp6689
I1534
atp6690
Rp6691
sI-1395
g1
((lp6692
I1534
atp6693
Rp6694
sI-1394
g1
((lp6695
I1534
atp6696
Rp6697
sI-1393
g1
((lp6698
I1520
atp6699
Rp6700
sI-1392
g1
((lp6701
I1520
atp6702
Rp6703
sI-1391
g1
((lp6704
I1519
atp6705
Rp6706
sI-1390
g1
((lp6707
I1782
aI1519
atp6708
Rp6709
sI-1389
g1
((lp6710
I1510
atp6711
Rp6712
sI-1388
g1
((lp6713
I1510
atp6714
Rp6715
sI-1387
g1
((lp6716
I1505
atp6717
Rp6718
sI-1386
g1
((lp6719
I1531
aI1503
atp6720
Rp6721
sI-1385
g1
((lp6722
I1531
aI1503
atp6723
Rp6724
sI-1384
g1
((lp6725
I1499
aI1509
aI1517
atp6726
Rp6727
sI-1383
g1
((lp6728
I1495
atp6729
Rp6730
sI-1382
g1
((lp6731
I1495
atp6732
Rp6733
sI-1381
g1
((lp6734
I1495
atp6735
Rp6736
sI-1380
g1
((lp6737
I1495
atp6738
Rp6739
sI-1379
g1
((lp6740
I1492
atp6741
Rp6742
sI-1378
g1
((lp6743
I1492
atp6744
Rp6745
sI-1377
g1
((lp6746
I1492
atp6747
Rp6748
sI-1376
g1
((lp6749
I1560
aI1490
aI1707
aI1959
atp6750
Rp6751
sI-1
g1
((lp6752
I1
aI3
aI516
aI1541
aI769
aI8
aI1034
aI1879
aI1453
aI1045
aI1046
aI23
aI1048
aI537
aI540
aI541
aI1566
aI1713
aI1577
aI557
aI46
aI723
aI1072
aI1585
aI1074
aI1459
aI53
aI55
aI1595
aI572
aI573
aI1598
aI576
aI66
aI1291
aI1604
aI1605
aI1097
aI593
aI1379
aI603
aI96
aI100
aI1639
aI620
aI626
aI1845
aI1143
aI1658
aI1659
aI1660
aI1663
aI644
aI1558
aI1671
aI651
aI656
aI145
aI1682
aI1171
aI661
aI1687
aI664
aI665
aI1691
aI1692
aI669
aI1694
aI671
aI1702
aI681
aI683
aI684
aI1650
aI686
aI175
aI177
aI182
aI1873
aI1723
aI1336
aI1824
aI1731
aI1224
aI1226
aI203
aI717
aI718
aI719
aI208
aI721
aI722
aI211
aI724
aI725
aI726
aI727
aI728
aI731
aI1245
aI1759
aI1762
aI755
aI1271
aI1272
aI1786
aI763
aI1277
aI1791
aI257
aI1795
aI1286
aI1287
aI215
aI268
aI782
aI784
aI1810
aI1812
aI1813
aI1304
aI793
aI1820
aI797
aI1911
aI800
aI1828
aI293
aI1322
aI1325
aI305
aI1332
aI821
aI311
aI1195
aI1852
aI1589
aI1347
aI1862
aI841
aI843
aI846
aI1872
aI337
aI1364
aI343
aI1881
aI1884
aI354
aI867
aI1892
aI657
aI1898
aI1899
aI1902
aI369
aI1399
aI888
aI1402
aI1915
aI896
aI1927
aI1416
aI1929
aI403
aI1941
aI413
aI1438
aI1441
aI931
aI934
aI424
aI1452
aI429
aI1967
aI434
aI243
aI436
aI1464
aI1467
aI1468
aI446
aI448
aI462
aI467
aI984
aI1498
aI988
aI477
aI993
aI994
aI997
aI999
aI1524
aI1527
aI1016
aI1535
atp6753
Rp6754
sI-1374
g1
((lp6755
I1483
atp6756
Rp6757
sI-1373
g1
((lp6758
I1483
atp6759
Rp6760
sI-1372
g1
((lp6761
I1483
atp6762
Rp6763
sI-1371
g1
((lp6764
I1483
atp6765
Rp6766
sI-1370
g1
((lp6767
I1841
aI1483
atp6768
Rp6769
sI-1369
g1
((lp6770
I1483
atp6771
Rp6772
sI-1368
g1
((lp6773
I1483
atp6774
Rp6775
sI-1367
g1
((lp6776
I1480
atp6777
Rp6778
sI-1366
g1
((lp6779
I1480
atp6780
Rp6781
sI-1365
g1
((lp6782
I1480
atp6783
Rp6784
sI-1364
g1
((lp6785
I1480
atp6786
Rp6787
sI-1363
g1
((lp6788
I1480
atp6789
Rp6790
sI-1362
g1
((lp6791
I1480
atp6792
Rp6793
sI-1361
g1
((lp6794
I1478
atp6795
Rp6796
sI-1360
g1
((lp6797
I1476
atp6798
Rp6799
sI-1359
g1
((lp6800
I1475
atp6801
Rp6802
sI-1358
g1
((lp6803
I1471
atp6804
Rp6805
sI-1357
g1
((lp6806
I1470
aI1454
atp6807
Rp6808
sI-1356
g1
((lp6809
I1451
atp6810
Rp6811
sI-1355
g1
((lp6812
I1451
atp6813
Rp6814
sI-1354
g1
((lp6815
I1451
atp6816
Rp6817
sI-1353
g1
((lp6818
I1451
atp6819
Rp6820
sI-1352
g1
((lp6821
I1449
atp6822
Rp6823
sI-1351
g1
((lp6824
I1447
atp6825
Rp6826
sI-1350
g1
((lp6827
I1547
aI1482
aI1443
aI1581
aI1511
atp6828
Rp6829
sI-1349
g1
((lp6830
I1547
aI1482
aI1443
aI1581
aI1511
atp6831
Rp6832
sI-1348
g1
((lp6833
I1434
atp6834
Rp6835
sI-1347
g1
((lp6836
I1434
atp6837
Rp6838
sI-1346
g1
((lp6839
I1432
atp6840
Rp6841
sI-1345
g1
((lp6842
I1428
atp6843
Rp6844
sI-1344
g1
((lp6845
I1428
atp6846
Rp6847
sI-1343
g1
((lp6848
I1428
atp6849
Rp6850
sI-1342
g1
((lp6851
I1424
atp6852
Rp6853
sI-1341
g1
((lp6854
I1424
atp6855
Rp6856
sI-1340
g1
((lp6857
I1424
atp6858
Rp6859
sI-1339
g1
((lp6860
I1422
atp6861
Rp6862
sI-1338
g1
((lp6863
I1415
atp6864
Rp6865
sI-1337
g1
((lp6866
I1415
atp6867
Rp6868
sI-1336
g1
((lp6869
I1677
aI1414
atp6870
Rp6871
sI-1335
g1
((lp6872
I1411
atp6873
Rp6874
sI-1334
g1
((lp6875
I1411
atp6876
Rp6877
sI-1333
g1
((lp6878
I1404
atp6879
Rp6880
sI-1332
g1
((lp6881
I1404
atp6882
Rp6883
sI-1331
g1
((lp6884
I1404
atp6885
Rp6886
sI-1330
g1
((lp6887
I1400
atp6888
Rp6889
sI-1329
g1
((lp6890
I1400
atp6891
Rp6892
sI-1328
g1
((lp6893
I1400
atp6894
Rp6895
sI-1327
g1
((lp6896
I1400
atp6897
Rp6898
sI-1326
g1
((lp6899
I1397
atp6900
Rp6901
sI-1325
g1
((lp6902
I1397
atp6903
Rp6904
sI-1324
g1
((lp6905
I1393
atp6906
Rp6907
sI-1323
g1
((lp6908
I1387
atp6909
Rp6910
sI-1322
g1
((lp6911
I1387
atp6912
Rp6913
sI-1321
g1
((lp6914
I1386
atp6915
Rp6916
sI-1320
g1
((lp6917
I1386
atp6918
Rp6919
sI-1319
g1
((lp6920
I1386
atp6921
Rp6922
sI-1318
g1
((lp6923
I1386
atp6924
Rp6925
sI-1317
g1
((lp6926
I1386
atp6927
Rp6928
sI-1316
g1
((lp6929
I1480
aI1386
atp6930
Rp6931
sI-1315
g1
((lp6932
I1386
atp6933
Rp6934
sI-1314
g1
((lp6935
I1386
atp6936
Rp6937
sI-1313
g1
((lp6938
I1385
atp6939
Rp6940
sI-1312
g1
((lp6941
I1397
aI1382
atp6942
Rp6943
sI-1311
g1
((lp6944
I1381
atp6945
Rp6946
sI-1310
g1
((lp6947
I1378
atp6948
Rp6949
sI-1309
g1
((lp6950
I1378
atp6951
Rp6952
sI-1308
g1
((lp6953
I1377
atp6954
Rp6955
sI-1307
g1
((lp6956
I1376
atp6957
Rp6958
sI-1306
g1
((lp6959
I1374
atp6960
Rp6961
sI-1305
g1
((lp6962
I1369
atp6963
Rp6964
sI-1304
g1
((lp6965
I1368
atp6966
Rp6967
sI-1303
g1
((lp6968
I1365
atp6969
Rp6970
sI-1302
g1
((lp6971
I1358
atp6972
Rp6973
sI-1301
g1
((lp6974
I1358
atp6975
Rp6976
sI-1300
g1
((lp6977
I1358
atp6978
Rp6979
sI-1299
g1
((lp6980
I1358
atp6981
Rp6982
sI-1298
g1
((lp6983
I1358
atp6984
Rp6985
sI-1297
g1
((lp6986
I1354
atp6987
Rp6988
sI-1296
g1
((lp6989
I1354
atp6990
Rp6991
sI-1295
g1
((lp6992
I1353
atp6993
Rp6994
sI-1294
g1
((lp6995
I1349
atp6996
Rp6997
sI-1293
g1
((lp6998
I1349
atp6999
Rp7000
sI-1292
g1
((lp7001
I1349
atp7002
Rp7003
sI-1291
g1
((lp7004
I1347
atp7005
Rp7006
sI-1290
g1
((lp7007
I1347
atp7008
Rp7009
sI-1289
g1
((lp7010
I1346
atp7011
Rp7012
sI-1288
g1
((lp7013
I1346
atp7014
Rp7015
sI-1287
g1
((lp7016
I1346
atp7017
Rp7018
sI-1286
g1
((lp7019
I1346
atp7020
Rp7021
sI-1285
g1
((lp7022
I1346
atp7023
Rp7024
sI-1284
g1
((lp7025
I1346
atp7026
Rp7027
sI-1283
g1
((lp7028
I1346
atp7029
Rp7030
sI-1282
g1
((lp7031
I1346
atp7032
Rp7033
sI-1281
g1
((lp7034
I1342
atp7035
Rp7036
sI-1280
g1
((lp7037
I1341
atp7038
Rp7039
sI-1279
g1
((lp7040
I1333
atp7041
Rp7042
sI-1278
g1
((lp7043
I1333
atp7044
Rp7045
sI-1277
g1
((lp7046
I1331
atp7047
Rp7048
sI-1276
g1
((lp7049
I1326
atp7050
Rp7051
sI-1275
g1
((lp7052
I1326
atp7053
Rp7054
sI-1274
g1
((lp7055
I1326
atp7056
Rp7057
sI-1273
g1
((lp7058
I1324
atp7059
Rp7060
sI-1272
g1
((lp7061
I1324
atp7062
Rp7063
sI-1271
g1
((lp7064
I1323
atp7065
Rp7066
sI-1270
g1
((lp7067
I1323
atp7068
Rp7069
sI-1269
g1
((lp7070
I1321
atp7071
Rp7072
sI-1268
g1
((lp7073
I1321
atp7074
Rp7075
sI-1267
g1
((lp7076
I1321
atp7077
Rp7078
sI-1266
g1
((lp7079
I1318
atp7080
Rp7081
sI-1265
g1
((lp7082
I1318
atp7083
Rp7084
sI-1264
g1
((lp7085
I1318
atp7086
Rp7087
sI-1263
g1
((lp7088
I1318
atp7089
Rp7090
sI-1262
g1
((lp7091
I1317
atp7092
Rp7093
sI-1261
g1
((lp7094
I1315
atp7095
Rp7096
sI-1260
g1
((lp7097
I1312
atp7098
Rp7099
sI-1259
g1
((lp7100
I1312
atp7101
Rp7102
sI-1258
g1
((lp7103
I1311
atp7104
Rp7105
sI-1257
g1
((lp7106
I1310
atp7107
Rp7108
sI-1256
g1
((lp7109
I1308
atp7110
Rp7111
sI-1255
g1
((lp7112
I1308
atp7113
Rp7114
sI-1254
g1
((lp7115
I1308
atp7116
Rp7117
sI-1253
g1
((lp7118
I1307
atp7119
Rp7120
sI-1252
g1
((lp7121
I1305
atp7122
Rp7123
sI-1251
g1
((lp7124
I1305
atp7125
Rp7126
sI-1250
g1
((lp7127
I1303
atp7128
Rp7129
sI-1249
g1
((lp7130
I1300
atp7131
Rp7132
sI-1248
g1
((lp7133
I1297
atp7134
Rp7135
sI-1247
g1
((lp7136
I1294
atp7137
Rp7138
sI-1246
g1
((lp7139
I1293
atp7140
Rp7141
sI-1245
g1
((lp7142
I1293
atp7143
Rp7144
sI-1244
g1
((lp7145
I1289
atp7146
Rp7147
sI-1243
g1
((lp7148
I1289
atp7149
Rp7150
sI-1242
g1
((lp7151
I1289
atp7152
Rp7153
sI-1241
g1
((lp7154
I1284
atp7155
Rp7156
sI-1240
g1
((lp7157
I1284
atp7158
Rp7159
sI-1239
g1
((lp7160
I1279
atp7161
Rp7162
sI-1238
g1
((lp7163
I1279
atp7164
Rp7165
sI-1237
g1
((lp7166
I1279
atp7167
Rp7168
sI-1236
g1
((lp7169
I1279
atp7170
Rp7171
sI-1235
g1
((lp7172
I1279
atp7173
Rp7174
sI-1234
g1
((lp7175
I1279
atp7176
Rp7177
sI-1233
g1
((lp7178
I1278
atp7179
Rp7180
sI-1232
g1
((lp7181
I1277
atp7182
Rp7183
sI-1231
g1
((lp7184
I1275
atp7185
Rp7186
sI-1230
g1
((lp7187
I1274
atp7188
Rp7189
sI-1229
g1
((lp7190
I1273
atp7191
Rp7192
sI-1228
g1
((lp7193
I1272
aI1441
aI1691
aI1929
atp7194
Rp7195
sI-1227
g1
((lp7196
I1267
atp7197
Rp7198
sI-1226
g1
((lp7199
I1267
atp7200
Rp7201
sI-1225
g1
((lp7202
I1267
atp7203
Rp7204
sI-1224
g1
((lp7205
I1267
atp7206
Rp7207
sI-1223
g1
((lp7208
I1267
atp7209
Rp7210
sI-1222
g1
((lp7211
I1267
atp7212
Rp7213
sI-1221
g1
((lp7214
I1264
atp7215
Rp7216
sI-1220
g1
((lp7217
I1263
atp7218
Rp7219
sI-1219
g1
((lp7220
I1263
atp7221
Rp7222
sI-1218
g1
((lp7223
I1263
atp7224
Rp7225
sI-1217
g1
((lp7226
I1263
atp7227
Rp7228
sI-1216
g1
((lp7229
I1263
atp7230
Rp7231
sI-1215
g1
((lp7232
I1263
atp7233
Rp7234
sI-1214
g1
((lp7235
I1260
atp7236
Rp7237
sI-1213
g1
((lp7238
I1258
atp7239
Rp7240
sI-1212
g1
((lp7241
I1254
atp7242
Rp7243
sI-1211
g1
((lp7244
I1254
atp7245
Rp7246
sI-1210
g1
((lp7247
I1254
atp7248
Rp7249
sI-1209
g1
((lp7250
I1253
atp7251
Rp7252
sI-1208
g1
((lp7253
I1253
atp7254
Rp7255
sI-1207
g1
((lp7256
I1882
aI1252
atp7257
Rp7258
sI-1206
g1
((lp7259
I1251
atp7260
Rp7261
sI-1205
g1
((lp7262
I1251
atp7263
Rp7264
sI-1204
g1
((lp7265
I1250
atp7266
Rp7267
sI-1203
g1
((lp7268
I1250
atp7269
Rp7270
sI-1202
g1
((lp7271
I1249
atp7272
Rp7273
sI-1201
g1
((lp7274
I1249
aI1358
atp7275
Rp7276
sI-1200
g1
((lp7277
I1246
atp7278
Rp7279
sI-1199
g1
((lp7280
I1246
atp7281
Rp7282
sI-1198
g1
((lp7283
I1246
atp7284
Rp7285
sI-1197
g1
((lp7286
I1245
atp7287
Rp7288
sI-1196
g1
((lp7289
I1242
atp7290
Rp7291
sI-1195
g1
((lp7292
I1242
atp7293
Rp7294
sI-1194
g1
((lp7295
I1241
atp7296
Rp7297
sI-1193
g1
((lp7298
I1240
atp7299
Rp7300
sI-1192
g1
((lp7301
I1236
atp7302
Rp7303
sI-1191
g1
((lp7304
I1234
aI1868
aI1778
atp7305
Rp7306
sI-1190
g1
((lp7307
I1222
atp7308
Rp7309
sI-1189
g1
((lp7310
I1219
atp7311
Rp7312
sI-1188
g1
((lp7313
I1219
atp7314
Rp7315
sI-1187
g1
((lp7316
I1214
atp7317
Rp7318
sI-1186
g1
((lp7319
I1214
atp7320
Rp7321
sI-1185
g1
((lp7322
I1214
atp7323
Rp7324
sI-1184
g1
((lp7325
I1212
atp7326
Rp7327
sI-1183
g1
((lp7328
I1206
atp7329
Rp7330
sI-1182
g1
((lp7331
I1206
atp7332
Rp7333
sI-1181
g1
((lp7334
I1202
aI1218
atp7335
Rp7336
sI-1180
g1
((lp7337
I1200
atp7338
Rp7339
sI-1179
g1
((lp7340
I1199
atp7341
Rp7342
sI-1178
g1
((lp7343
I1199
atp7344
Rp7345
sI-1177
g1
((lp7346
I1347
aI1199
atp7347
Rp7348
sI-1176
g1
((lp7349
I1199
atp7350
Rp7351
sI-1175
g1
((lp7352
I1698
aI1197
atp7353
Rp7354
sI-1174
g1
((lp7355
I1197
atp7356
Rp7357
sI-1173
g1
((lp7358
I1191
atp7359
Rp7360
sI-1172
g1
((lp7361
I1191
atp7362
Rp7363
sI-1171
g1
((lp7364
I1191
atp7365
Rp7366
sI-1170
g1
((lp7367
I1186
atp7368
Rp7369
sI-1169
g1
((lp7370
I1186
atp7371
Rp7372
sI-1168
g1
((lp7373
I1180
atp7374
Rp7375
sI-1167
g1
((lp7376
I1588
aI1180
atp7377
Rp7378
sI-1166
g1
((lp7379
I1180
atp7380
Rp7381
sI-1165
g1
((lp7382
I1178
atp7383
Rp7384
sI-1164
g1
((lp7385
I1175
atp7386
Rp7387
sI-1163
g1
((lp7388
I1174
atp7389
Rp7390
sI-1162
g1
((lp7391
I1174
atp7392
Rp7393
sI-1161
g1
((lp7394
I1174
atp7395
Rp7396
sI-1160
g1
((lp7397
I1313
aI1173
atp7398
Rp7399
sI-1159
g1
((lp7400
I1313
aI1173
atp7401
Rp7402
sI-1158
g1
((lp7403
I1313
aI1173
atp7404
Rp7405
sI-1157
g1
((lp7406
I1313
aI1173
atp7407
Rp7408
sI-1156
g1
((lp7409
I1172
atp7410
Rp7411
sI-1155
g1
((lp7412
I1172
atp7413
Rp7414
sI-1154
g1
((lp7415
I1172
atp7416
Rp7417
sI-1153
g1
((lp7418
I1167
atp7419
Rp7420
sI-1152
g1
((lp7421
I1167
atp7422
Rp7423
sI-1151
g1
((lp7424
I1165
atp7425
Rp7426
sI-1150
g1
((lp7427
I1165
atp7428
Rp7429
sI-1149
g1
((lp7430
I1162
atp7431
Rp7432
sI-1148
g1
((lp7433
I1162
atp7434
Rp7435
sI-1147
g1
((lp7436
I1158
atp7437
Rp7438
sI-1146
g1
((lp7439
I1155
atp7440
Rp7441
sI-1145
g1
((lp7442
I1152
atp7443
Rp7444
sI-1144
g1
((lp7445
I1152
atp7446
Rp7447
sI-1143
g1
((lp7448
I1151
atp7449
Rp7450
sI-1142
g1
((lp7451
I1149
atp7452
Rp7453
sI-1141
g1
((lp7454
I1146
atp7455
Rp7456
sI-1140
g1
((lp7457
I1146
atp7458
Rp7459
sI-1139
g1
((lp7460
I1146
atp7461
Rp7462
sI-1138
g1
((lp7463
I1145
atp7464
Rp7465
sI-1137
g1
((lp7466
I1140
atp7467
Rp7468
sI-1136
g1
((lp7469
I1137
atp7470
Rp7471
sI-1135
g1
((lp7472
I1129
atp7473
Rp7474
sI-1134
g1
((lp7475
I1128
atp7476
Rp7477
sI-1133
g1
((lp7478
I1126
atp7479
Rp7480
sI-1132
g1
((lp7481
I1126
atp7482
Rp7483
sI-1131
g1
((lp7484
I1126
atp7485
Rp7486
sI-1130
g1
((lp7487
I1126
atp7488
Rp7489
sI-1129
g1
((lp7490
I1126
atp7491
Rp7492
sI-1128
g1
((lp7493
I1126
atp7494
Rp7495
sI-1127
g1
((lp7496
I1126
atp7497
Rp7498
sI-1126
g1
((lp7499
I1126
atp7500
Rp7501
sI-1125
g1
((lp7502
I1125
atp7503
Rp7504
sI-1124
g1
((lp7505
I1124
atp7506
Rp7507
sI-1123
g1
((lp7508
I1124
atp7509
Rp7510
sI-1122
g1
((lp7511
I1124
atp7512
Rp7513
sI-1121
g1
((lp7514
I1124
atp7515
Rp7516
sI-1120
g1
((lp7517
I1124
atp7518
Rp7519
sI-1119
g1
((lp7520
I1124
atp7521
Rp7522
sI-1118
g1
((lp7523
I1120
atp7524
Rp7525
sI-1117
g1
((lp7526
I1118
atp7527
Rp7528
sI-1116
g1
((lp7529
I1115
atp7530
Rp7531
sI-1115
g1
((lp7532
I1681
aI1115
aI1775
atp7533
Rp7534
sI-1114
g1
((lp7535
I1115
atp7536
Rp7537
sI-1113
g1
((lp7538
I1115
atp7539
Rp7540
sI-1112
g1
((lp7541
I1114
aI1853
atp7542
Rp7543
sI-1111
g1
((lp7544
I1473
aI1114
aI1316
aI1853
atp7545
Rp7546
sI-1110
g1
((lp7547
I1111
atp7548
Rp7549
sI-1109
g1
((lp7550
I1110
atp7551
Rp7552
sI-1108
g1
((lp7553
I1109
atp7554
Rp7555
sI-1107
g1
((lp7556
I1201
aI1160
aI1133
aI1192
aI1107
aI1176
aI1119
atp7557
Rp7558
sI-1106
g1
((lp7559
I1201
aI1160
aI1133
aI1192
aI1107
aI1176
aI1119
atp7560
Rp7561
sI-1105
g1
((lp7562
I1528
aI1105
atp7563
Rp7564
sI-1104
g1
((lp7565
I1105
atp7566
Rp7567
sI-1103
g1
((lp7568
I1104
atp7569
Rp7570
sI-1102
g1
((lp7571
I1103
atp7572
Rp7573
sI-1101
g1
((lp7574
I1103
atp7575
Rp7576
sI-1100
g1
((lp7577
I1103
atp7578
Rp7579
sI-1099
g1
((lp7580
I1103
atp7581
Rp7582
sI-1098
g1
((lp7583
I1098
atp7584
Rp7585
sI-1097
g1
((lp7586
I1092
atp7587
Rp7588
sI-1096
g1
((lp7589
I1092
atp7590
Rp7591
sI-1095
g1
((lp7592
I1087
atp7593
Rp7594
sI-1094
g1
((lp7595
I1087
atp7596
Rp7597
sI-1093
g1
((lp7598
I1087
atp7599
Rp7600
sI-1092
g1
((lp7601
I1087
atp7602
Rp7603
sI-1091
g1
((lp7604
I1087
atp7605
Rp7606
sI-1090
g1
((lp7607
I1087
atp7608
Rp7609
sI-1089
g1
((lp7610
I1087
atp7611
Rp7612
sI-1088
g1
((lp7613
I1084
atp7614
Rp7615
sI-1087
g1
((lp7616
I1079
atp7617
Rp7618
sI-1086
g1
((lp7619
I1078
atp7620
Rp7621
sI-1085
g1
((lp7622
I1076
atp7623
Rp7624
sI-1084
g1
((lp7625
I1076
atp7626
Rp7627
sI-1083
g1
((lp7628
I1076
atp7629
Rp7630
sI-1082
g1
((lp7631
I1076
atp7632
Rp7633
sI-1081
g1
((lp7634
I1073
atp7635
Rp7636
sI-1080
g1
((lp7637
I1073
atp7638
Rp7639
sI-1079
g1
((lp7640
I1073
atp7641
Rp7642
sI-1078
g1
((lp7643
I1070
atp7644
Rp7645
sI-1077
g1
((lp7646
I1067
aI1335
atp7647
Rp7648
sI-1076
g1
((lp7649
I1264
aI1066
atp7650
Rp7651
sI-1075
g1
((lp7652
I1066
atp7653
Rp7654
sI-1074
g1
((lp7655
I1066
atp7656
Rp7657
sI-1073
g1
((lp7658
I1060
atp7659
Rp7660
sI-1072
g1
((lp7661
I1053
atp7662
Rp7663
sI-1071
g1
((lp7664
I1053
atp7665
Rp7666
sI-1070
g1
((lp7667
I1053
atp7668
Rp7669
sI-1069
g1
((lp7670
I1053
atp7671
Rp7672
sI-1068
g1
((lp7673
I1052
atp7674
Rp7675
sI-1067
g1
((lp7676
I1052
atp7677
Rp7678
sI-1066
g1
((lp7679
I1050
atp7680
Rp7681
sI-1065
g1
((lp7682
I1416
aI1464
aI1045
atp7683
Rp7684
sI-1064
g1
((lp7685
I1416
aI1464
aI1045
atp7686
Rp7687
sI-1063
g1
((lp7688
I1030
atp7689
Rp7690
sI-1062
g1
((lp7691
I1025
aI1297
atp7692
Rp7693
sI-1061
g1
((lp7694
I1023
atp7695
Rp7696
sI-1060
g1
((lp7697
I1021
atp7698
Rp7699
sI-1059
g1
((lp7700
I1021
atp7701
Rp7702
sI-1058
g1
((lp7703
I1021
atp7704
Rp7705
sI-1057
g1
((lp7706
I1019
atp7707
Rp7708
sI-1056
g1
((lp7709
I1018
atp7710
Rp7711
sI-1055
g1
((lp7712
I1018
atp7713
Rp7714
sI-1054
g1
((lp7715
I1017
atp7716
Rp7717
sI-1053
g1
((lp7718
I1017
atp7719
Rp7720
sI-1052
g1
((lp7721
I1200
aI1017
aI1284
atp7722
Rp7723
sI-1051
g1
((lp7724
I1017
atp7725
Rp7726
sI-1050
g1
((lp7727
I1017
atp7728
Rp7729
sI-1049
g1
((lp7730
I1015
atp7731
Rp7732
sI-1048
g1
((lp7733
I1015
atp7734
Rp7735
sI-1047
g1
((lp7736
I1012
atp7737
Rp7738
sI-1046
g1
((lp7739
I1009
aI1412
aI1799
atp7740
Rp7741
sI-1045
g1
((lp7742
I1002
atp7743
Rp7744
sI-1044
g1
((lp7745
I1001
atp7746
Rp7747
sI-1043
g1
((lp7748
I1001
aI1594
atp7749
Rp7750
sI-1042
g1
((lp7751
I1001
atp7752
Rp7753
sI-1041
g1
((lp7754
I1001
atp7755
Rp7756
sI-1040
g1
((lp7757
I1001
atp7758
Rp7759
sI-1039
g1
((lp7760
I1000
atp7761
Rp7762
sI-1038
g1
((lp7763
I1000
atp7764
Rp7765
sI-1037
g1
((lp7766
I1866
aI995
atp7767
Rp7768
sI-1036
g1
((lp7769
I995
atp7770
Rp7771
sI-1035
g1
((lp7772
I992
atp7773
Rp7774
sI-1034
g1
((lp7775
I992
aI1606
aI1111
atp7776
Rp7777
sI-1033
g1
((lp7778
I992
atp7779
Rp7780
sI-1032
g1
((lp7781
I992
atp7782
Rp7783
sI-1031
g1
((lp7784
I992
atp7785
Rp7786
sI-1030
g1
((lp7787
I989
atp7788
Rp7789
sI-1029
g1
((lp7790
I982
atp7791
Rp7792
sI-1028
g1
((lp7793
I982
atp7794
Rp7795
sI-1027
g1
((lp7796
I981
atp7797
Rp7798
sI-1026
g1
((lp7799
I981
atp7800
Rp7801
sI-1025
g1
((lp7802
I1592
aI977
atp7803
Rp7804
sI-1024
g1
((lp7805
I973
atp7806
Rp7807
sI-1023
g1
((lp7808
I971
atp7809
Rp7810
sI-1022
g1
((lp7811
I971
atp7812
Rp7813
sI-1021
g1
((lp7814
I970
atp7815
Rp7816
sI-1020
g1
((lp7817
I970
atp7818
Rp7819
sI-1019
g1
((lp7820
I970
atp7821
Rp7822
sI-1018
g1
((lp7823
I968
aI1354
aI1492
atp7824
Rp7825
sI-1017
g1
((lp7826
I968
atp7827
Rp7828
sI-1016
g1
((lp7829
I968
atp7830
Rp7831
sI-1015
g1
((lp7832
I968
atp7833
Rp7834
sI-1014
g1
((lp7835
I968
aI1680
aI1333
atp7836
Rp7837
sI-1013
g1
((lp7838
I1258
aI1227
aI1578
aI966
atp7839
Rp7840
sI-1012
g1
((lp7841
I1578
aI1227
aI966
atp7842
Rp7843
sI-1011
g1
((lp7844
I1578
aI1227
aI1910
aI966
atp7845
Rp7846
sI-1010
g1
((lp7847
I1578
aI1227
aI966
atp7848
Rp7849
sI-1009
g1
((lp7850
I1641
aI1666
aI1596
aI957
aI1937
atp7851
Rp7852
sI-1008
g1
((lp7853
I1596
aI957
atp7854
Rp7855
sI-1007
g1
((lp7856
I953
atp7857
Rp7858
sI-1006
g1
((lp7859
I953
atp7860
Rp7861
sI-1005
g1
((lp7862
I948
atp7863
Rp7864
sI-1004
g1
((lp7865
I960
aI1216
aI1154
aI1156
aI1189
aI1193
aI941
aI1102
aI1360
aI1010
aI1177
aI1182
aI1648
atp7866
Rp7867
sI-1003
g1
((lp7868
I941
atp7869
Rp7870
sI-1002
g1
((lp7871
I941
atp7872
Rp7873
sI-1001
g1
((lp7874
I941
atp7875
Rp7876
sI-1000
g1
((lp7877
I938
atp7878
Rp7879
sI-999
g1
((lp7880
I938
atp7881
Rp7882
sI-998
g1
((lp7883
I938
atp7884
Rp7885
sI-997
g1
((lp7886
I937
aI965
aI990
aI1501
atp7887
Rp7888
sI-996
g1
((lp7889
I937
aI965
aI990
aI1501
atp7890
Rp7891
sI-995
g1
((lp7892
I935
atp7893
Rp7894
sI-994
g1
((lp7895
I935
atp7896
Rp7897
sI-993
g1
((lp7898
I935
atp7899
Rp7900
sI-992
g1
((lp7901
I935
atp7902
Rp7903
sI-991
g1
((lp7904
I935
atp7905
Rp7906
sI-990
g1
((lp7907
I1657
aI1404
aI1861
aI1342
aI935
atp7908
Rp7909
sI-989
g1
((lp7910
I929
atp7911
Rp7912
sI-988
g1
((lp7913
I928
aI939
atp7914
Rp7915
sI-987
g1
((lp7916
I928
aI939
atp7917
Rp7918
sI-986
g1
((lp7919
I930
aI933
aI1003
aI1038
aI1049
aI926
atp7920
Rp7921
sI-985
g1
((lp7922
I924
atp7923
Rp7924
sI-984
g1
((lp7925
I924
atp7926
Rp7927
sI-983
g1
((lp7928
I924
atp7929
Rp7930
sI-982
g1
((lp7931
I924
atp7932
Rp7933
sI-981
g1
((lp7934
I917
atp7935
Rp7936
sI-980
g1
((lp7937
I916
atp7938
Rp7939
sI-979
g1
((lp7940
I915
atp7941
Rp7942
sI-978
g1
((lp7943
I914
atp7944
Rp7945
sI-977
g1
((lp7946
I907
atp7947
Rp7948
sI-976
g1
((lp7949
I1098
aI901
atp7950
Rp7951
sI-975
g1
((lp7952
I1563
aI899
atp7953
Rp7954
sI-974
g1
((lp7955
I898
atp7956
Rp7957
sI-973
g1
((lp7958
I898
atp7959
Rp7960
sI-972
g1
((lp7961
I1168
aI1187
aI893
atp7962
Rp7963
sI-971
g1
((lp7964
I889
atp7965
Rp7966
sI-970
g1
((lp7967
I886
atp7968
Rp7969
sI-969
g1
((lp7970
I886
atp7971
Rp7972
sI-968
g1
((lp7973
I886
atp7974
Rp7975
sI-967
g1
((lp7976
I885
atp7977
Rp7978
sI-966
g1
((lp7979
I884
atp7980
Rp7981
sI-965
g1
((lp7982
I884
atp7983
Rp7984
sI-964
g1
((lp7985
I883
atp7986
Rp7987
sI-963
g1
((lp7988
I883
atp7989
Rp7990
sI-962
g1
((lp7991
I1961
aI882
atp7992
Rp7993
sI-961
g1
((lp7994
I882
atp7995
Rp7996
sI-960
g1
((lp7997
I882
atp7998
Rp7999
sI-959
g1
((lp8000
I876
atp8001
Rp8002
sI-958
g1
((lp8003
I872
atp8004
Rp8005
sI-957
g1
((lp8006
I872
aI1628
aI1556
atp8007
Rp8008
sI-956
g1
((lp8009
I870
atp8010
Rp8011
sI-955
g1
((lp8012
I912
aI1129
aI1284
aI870
aI1457
atp8013
Rp8014
sI-954
g1
((lp8015
I866
atp8016
Rp8017
sI-953
g1
((lp8018
I865
atp8019
Rp8020
sI-952
g1
((lp8021
I864
atp8022
Rp8023
sI-951
g1
((lp8024
I862
atp8025
Rp8026
sI-950
g1
((lp8027
I861
atp8028
Rp8029
sI-949
g1
((lp8030
I1590
aI855
atp8031
Rp8032
sI-948
g1
((lp8033
I1590
aI855
atp8034
Rp8035
sI-947
g1
((lp8036
I845
atp8037
Rp8038
sI-946
g1
((lp8039
I845
atp8040
Rp8041
sI-945
g1
((lp8042
I907
aI845
atp8043
Rp8044
sI-944
g1
((lp8045
I838
atp8046
Rp8047
sI-943
g1
((lp8048
I838
atp8049
Rp8050
sI-942
g1
((lp8051
I1076
aI1346
aI836
aI1582
atp8052
Rp8053
sI-941
g1
((lp8054
I836
atp8055
Rp8056
sI-940
g1
((lp8057
I836
atp8058
Rp8059
sI-939
g1
((lp8060
I836
atp8061
Rp8062
sI-938
g1
((lp8063
I836
atp8064
Rp8065
sI-937
g1
((lp8066
I836
atp8067
Rp8068
sI-936
g1
((lp8069
I836
aI1814
atp8070
Rp8071
sI-935
g1
((lp8072
I836
atp8073
Rp8074
sI-934
g1
((lp8075
I836
atp8076
Rp8077
sI-933
g1
((lp8078
I834
atp8079
Rp8080
sI-932
g1
((lp8081
I834
atp8082
Rp8083
sI-931
g1
((lp8084
I833
atp8085
Rp8086
sI-930
g1
((lp8087
I1680
aI833
aI1151
atp8088
Rp8089
sI-929
g1
((lp8090
I833
atp8091
Rp8092
sI-928
g1
((lp8093
I833
atp8094
Rp8095
sI-927
g1
((lp8096
I832
aI1764
aI1476
atp8097
Rp8098
sI-926
g1
((lp8099
I1651
aI831
atp8100
Rp8101
sI-925
g1
((lp8102
I831
atp8103
Rp8104
sI-924
g1
((lp8105
I830
atp8106
Rp8107
sI-923
g1
((lp8108
I827
atp8109
Rp8110
sI-922
g1
((lp8111
I827
atp8112
Rp8113
sI-921
g1
((lp8114
I968
aI827
aI1492
atp8115
Rp8116
sI-920
g1
((lp8117
I1534
aI823
atp8118
Rp8119
sI-919
g1
((lp8120
I1528
aI1105
aI1293
aI1534
aI823
atp8121
Rp8122
sI-918
g1
((lp8123
I823
atp8124
Rp8125
sI-917
g1
((lp8126
I812
atp8127
Rp8128
sI-916
g1
((lp8129
I812
atp8130
Rp8131
sI-915
g1
((lp8132
I808
aI900
atp8133
Rp8134
sI-914
g1
((lp8135
I807
atp8136
Rp8137
sI-913
g1
((lp8138
I807
atp8139
Rp8140
sI-912
g1
((lp8141
I807
atp8142
Rp8143
sI-911
g1
((lp8144
I806
atp8145
Rp8146
sI-910
g1
((lp8147
I805
atp8148
Rp8149
sI-909
g1
((lp8150
I1456
aI803
atp8151
Rp8152
sI-908
g1
((lp8153
I800
aI1812
atp8154
Rp8155
sI-907
g1
((lp8156
I799
atp8157
Rp8158
sI-906
g1
((lp8159
I1518
aI799
atp8160
Rp8161
sI-905
g1
((lp8162
I798
atp8163
Rp8164
sI-904
g1
((lp8165
I797
atp8166
Rp8167
sI-903
g1
((lp8168
I796
aI1349
aI943
atp8169
Rp8170
sI-902
g1
((lp8171
I796
atp8172
Rp8173
sI-901
g1
((lp8174
I794
atp8175
Rp8176
sI-900
g1
((lp8177
I792
atp8178
Rp8179
sI-899
g1
((lp8180
I785
atp8181
Rp8182
sI-898
g1
((lp8183
I785
atp8184
Rp8185
sI-897
g1
((lp8186
I782
atp8187
Rp8188
sI-896
g1
((lp8189
I779
aI1877
atp8190
Rp8191
sI-895
g1
((lp8192
I779
aI1877
atp8193
Rp8194
sI-894
g1
((lp8195
I776
aI1712
aI1294
atp8196
Rp8197
sI-893
g1
((lp8198
I774
atp8199
Rp8200
sI-892
g1
((lp8201
I771
atp8202
Rp8203
sI-891
g1
((lp8204
I771
atp8205
Rp8206
sI-890
g1
((lp8207
I771
atp8208
Rp8209
sI-889
g1
((lp8210
I771
atp8211
Rp8212
sI-888
g1
((lp8213
I768
atp8214
Rp8215
sI-887
g1
((lp8216
I766
atp8217
Rp8218
sI-886
g1
((lp8219
I766
atp8220
Rp8221
sI-885
g1
((lp8222
I766
atp8223
Rp8224
sI-884
g1
((lp8225
I758
atp8226
Rp8227
sI-883
g1
((lp8228
I754
atp8229
Rp8230
sI-882
g1
((lp8231
I754
atp8232
Rp8233
sI-881
g1
((lp8234
I752
atp8235
Rp8236
sI-880
g1
((lp8237
I751
atp8238
Rp8239
sI-879
g1
((lp8240
I1513
aI750
aI1106
aI980
aI1624
aI1908
atp8241
Rp8242
sI-878
g1
((lp8243
I1513
aI750
aI1106
aI980
aI1624
aI1908
atp8244
Rp8245
sI-877
g1
((lp8246
I747
atp8247
Rp8248
sI-876
g1
((lp8249
I743
atp8250
Rp8251
sI-875
g1
((lp8252
I742
atp8253
Rp8254
sI-874
g1
((lp8255
I742
atp8256
Rp8257
sI-873
g1
((lp8258
I742
atp8259
Rp8260
sI-872
g1
((lp8261
I742
atp8262
Rp8263
sI-871
g1
((lp8264
I1680
aI742
atp8265
Rp8266
sI-870
g1
((lp8267
I742
atp8268
Rp8269
sI-869
g1
((lp8270
I736
atp8271
Rp8272
sI-868
g1
((lp8273
I736
atp8274
Rp8275
sI-867
g1
((lp8276
I736
atp8277
Rp8278
sI-866
g1
((lp8279
I736
atp8280
Rp8281
sI-865
g1
((lp8282
I736
atp8283
Rp8284
sI-864
g1
((lp8285
I736
atp8286
Rp8287
sI-863
g1
((lp8288
I916
aI734
atp8289
Rp8290
sI-862
g1
((lp8291
I734
atp8292
Rp8293
sI-861
g1
((lp8294
I734
atp8295
Rp8296
sI-860
g1
((lp8297
I730
aI850
atp8298
Rp8299
sI-859
g1
((lp8300
I730
aI850
atp8301
Rp8302
sI-858
g1
((lp8303
I730
aI850
atp8304
Rp8305
sI-857
g1
((lp8306
I729
atp8307
Rp8308
sI-856
g1
((lp8309
I729
atp8310
Rp8311
sI-855
g1
((lp8312
I720
atp8313
Rp8314
sI-854
g1
((lp8315
I720
atp8316
Rp8317
sI-853
g1
((lp8318
I720
atp8319
Rp8320
sI-852
g1
((lp8321
I753
aI716
atp8322
Rp8323
sI-851
g1
((lp8324
I711
aI1513
aI750
aI1327
aI1106
aI980
aI1624
aI1908
aI1279
atp8325
Rp8326
sI-850
g1
((lp8327
I711
atp8328
Rp8329
sI-849
g1
((lp8330
I711
atp8331
Rp8332
sI-848
g1
((lp8333
I710
atp8334
Rp8335
sI-847
g1
((lp8336
I710
atp8337
Rp8338
sI-846
g1
((lp8339
I710
atp8340
Rp8341
sI-845
g1
((lp8342
I710
atp8343
Rp8344
sI-844
g1
((lp8345
I710
atp8346
Rp8347
sI-843
g1
((lp8348
I703
atp8349
Rp8350
sI-842
g1
((lp8351
I703
atp8352
Rp8353
sI-841
g1
((lp8354
I703
atp8355
Rp8356
sI-840
g1
((lp8357
I703
atp8358
Rp8359
sI-839
g1
((lp8360
I700
atp8361
Rp8362
sI-838
g1
((lp8363
I705
aI698
atp8364
Rp8365
sI-837
g1
((lp8366
I705
aI698
atp8367
Rp8368
sI-836
g1
((lp8369
I705
aI698
atp8370
Rp8371
sI-835
g1
((lp8372
I705
aI698
atp8373
Rp8374
sI-834
g1
((lp8375
I694
atp8376
Rp8377
sI-833
g1
((lp8378
I691
atp8379
Rp8380
sI-832
g1
((lp8381
I691
atp8382
Rp8383
sI-831
g1
((lp8384
I690
aI1047
aI1117
aI767
atp8385
Rp8386
sI-830
g1
((lp8387
I688
atp8388
Rp8389
sI-829
g1
((lp8390
I687
atp8391
Rp8392
sI-828
g1
((lp8393
I687
atp8394
Rp8395
sI-827
g1
((lp8396
I683
aI1660
atp8397
Rp8398
sI-826
g1
((lp8399
I680
aI1320
atp8400
Rp8401
sI-825
g1
((lp8402
I679
atp8403
Rp8404
sI-824
g1
((lp8405
I679
atp8406
Rp8407
sI-823
g1
((lp8408
I678
atp8409
Rp8410
sI-822
g1
((lp8411
I674
atp8412
Rp8413
sI-821
g1
((lp8414
I674
atp8415
Rp8416
sI-820
g1
((lp8417
I673
atp8418
Rp8419
sI-819
g1
((lp8420
I672
atp8421
Rp8422
sI-818
g1
((lp8423
I1818
aI670
atp8424
Rp8425
sI-817
g1
((lp8426
I668
atp8427
Rp8428
sI-816
g1
((lp8429
I667
atp8430
Rp8431
sI-815
g1
((lp8432
I663
atp8433
Rp8434
sI-814
g1
((lp8435
I1294
aI663
atp8436
Rp8437
sI-813
g1
((lp8438
I663
atp8439
Rp8440
sI-812
g1
((lp8441
I660
atp8442
Rp8443
sI-811
g1
((lp8444
I660
atp8445
Rp8446
sI-810
g1
((lp8447
I660
atp8448
Rp8449
sI-809
g1
((lp8450
I660
atp8451
Rp8452
sI-808
g1
((lp8453
I660
atp8454
Rp8455
sI-807
g1
((lp8456
I660
atp8457
Rp8458
sI-806
g1
((lp8459
I660
atp8460
Rp8461
sI-805
g1
((lp8462
I658
atp8463
Rp8464
sI-804
g1
((lp8465
I655
atp8466
Rp8467
sI-803
g1
((lp8468
I653
atp8469
Rp8470
sI-802
g1
((lp8471
I653
atp8472
Rp8473
sI-801
g1
((lp8474
I650
atp8475
Rp8476
sI-800
g1
((lp8477
I650
atp8478
Rp8479
sI-799
g1
((lp8480
I650
atp8481
Rp8482
sI-798
g1
((lp8483
I650
atp8484
Rp8485
sI-797
g1
((lp8486
I650
atp8487
Rp8488
sI-796
g1
((lp8489
I650
atp8490
Rp8491
sI-795
g1
((lp8492
I650
atp8493
Rp8494
sI-794
g1
((lp8495
I648
atp8496
Rp8497
sI-793
g1
((lp8498
I647
atp8499
Rp8500
sI-792
g1
((lp8501
I730
aI850
aI647
atp8502
Rp8503
sI-791
g1
((lp8504
I643
aI676
aI739
atp8505
Rp8506
sI-790
g1
((lp8507
I643
aI676
aI1705
aI1871
aI739
aI1679
atp8508
Rp8509
sI-789
g1
((lp8510
I642
aI1006
atp8511
Rp8512
sI-788
g1
((lp8513
I640
atp8514
Rp8515
sI-787
g1
((lp8516
I638
atp8517
Rp8518
sI-786
g1
((lp8519
I638
atp8520
Rp8521
sI-785
g1
((lp8522
I638
atp8523
Rp8524
sI-784
g1
((lp8525
I638
atp8526
Rp8527
sI-783
g1
((lp8528
I638
atp8529
Rp8530
sI-782
g1
((lp8531
I638
atp8532
Rp8533
sI-781
g1
((lp8534
I1827
aI637
atp8535
Rp8536
sI-780
g1
((lp8537
I1827
aI637
atp8538
Rp8539
sI-779
g1
((lp8540
I1827
aI637
aI1855
atp8541
Rp8542
sI-778
g1
((lp8543
I1827
aI637
atp8544
Rp8545
sI-777
g1
((lp8546
I635
atp8547
Rp8548
sI-776
g1
((lp8549
I633
atp8550
Rp8551
sI-775
g1
((lp8552
I633
atp8553
Rp8554
sI-774
g1
((lp8555
I633
atp8556
Rp8557
sI-773
g1
((lp8558
I633
atp8559
Rp8560
sI-772
g1
((lp8561
I633
atp8562
Rp8563
sI-771
g1
((lp8564
I633
atp8565
Rp8566
sI-770
g1
((lp8567
I633
atp8568
Rp8569
sI-769
g1
((lp8570
I764
aI631
atp8571
Rp8572
sI-768
g1
((lp8573
I629
atp8574
Rp8575
sI-767
g1
((lp8576
I627
aI1083
aI932
aI1068
aI1035
aI1004
aI974
aI849
aI819
aI910
aI1051
atp8577
Rp8578
sI-766
g1
((lp8579
I627
aI1083
aI932
aI1068
aI1035
aI1004
aI974
aI849
aI819
aI910
aI1051
atp8580
Rp8581
sI-765
g1
((lp8582
I627
aI1083
aI932
aI1068
aI1035
aI1004
aI974
aI849
aI819
aI910
aI1051
atp8583
Rp8584
sI-764
g1
((lp8585
I625
aI1273
aI916
aI1017
atp8586
Rp8587
sI-763
g1
((lp8588
I625
aI1333
atp8589
Rp8590
sI-762
g1
((lp8591
I625
atp8592
Rp8593
sI-761
g1
((lp8594
I625
atp8595
Rp8596
sI-760
g1
((lp8597
I625
atp8598
Rp8599
sI-759
g1
((lp8600
I621
atp8601
Rp8602
sI-758
g1
((lp8603
I621
atp8604
Rp8605
sI-757
g1
((lp8606
I621
atp8607
Rp8608
sI-756
g1
((lp8609
I1195
aI620
atp8610
Rp8611
sI-755
g1
((lp8612
I768
aI619
atp8613
Rp8614
sI-754
g1
((lp8615
I617
aI618
atp8616
Rp8617
sI-753
g1
((lp8618
I616
aI622
atp8619
Rp8620
sI-752
g1
((lp8621
I613
atp8622
Rp8623
sI-751
g1
((lp8624
I613
atp8625
Rp8626
sI-750
g1
((lp8627
I609
atp8628
Rp8629
sI-749
g1
((lp8630
I608
atp8631
Rp8632
sI-748
g1
((lp8633
I608
atp8634
Rp8635
sI-747
g1
((lp8636
I608
atp8637
Rp8638
sI-746
g1
((lp8639
I607
atp8640
Rp8641
sI-745
g1
((lp8642
I604
aI1151
atp8643
Rp8644
sI-744
g1
((lp8645
I604
atp8646
Rp8647
sI-743
g1
((lp8648
I604
atp8649
Rp8650
sI-742
g1
((lp8651
I602
atp8652
Rp8653
sI-741
g1
((lp8654
I602
atp8655
Rp8656
sI-740
g1
((lp8657
I601
atp8658
Rp8659
sI-739
g1
((lp8660
I600
atp8661
Rp8662
sI-738
g1
((lp8663
I598
atp8664
Rp8665
sI-737
g1
((lp8666
I598
atp8667
Rp8668
sI-736
g1
((lp8669
I594
aI1917
atp8670
Rp8671
sI-735
g1
((lp8672
I594
aI1917
atp8673
Rp8674
sI-734
g1
((lp8675
I594
aI1917
atp8676
Rp8677
sI-733
g1
((lp8678
I590
atp8679
Rp8680
sI-732
g1
((lp8681
I588
atp8682
Rp8683
sI-731
g1
((lp8684
I588
atp8685
Rp8686
sI-730
g1
((lp8687
I588
atp8688
Rp8689
sI-729
g1
((lp8690
I587
atp8691
Rp8692
sI-728
g1
((lp8693
I587
atp8694
Rp8695
sI-727
g1
((lp8696
I587
atp8697
Rp8698
sI-726
g1
((lp8699
I583
atp8700
Rp8701
sI-725
g1
((lp8702
I583
atp8703
Rp8704
sI-724
g1
((lp8705
I583
atp8706
Rp8707
sI-723
g1
((lp8708
I1474
aI582
atp8709
Rp8710
sI-722
g1
((lp8711
I581
atp8712
Rp8713
sI-721
g1
((lp8714
I581
atp8715
Rp8716
sI-720
g1
((lp8717
I579
atp8718
Rp8719
sI-719
g1
((lp8720
I579
atp8721
Rp8722
sI-718
g1
((lp8723
I577
aI1802
atp8724
Rp8725
sI-717
g1
((lp8726
I574
atp8727
Rp8728
sI-716
g1
((lp8729
I571
atp8730
Rp8731
sI-715
g1
((lp8732
I571
atp8733
Rp8734
sI-714
g1
((lp8735
I571
atp8736
Rp8737
sI-713
g1
((lp8738
I570
atp8739
Rp8740
sI-712
g1
((lp8741
I570
atp8742
Rp8743
sI-711
g1
((lp8744
I570
atp8745
Rp8746
sI-710
g1
((lp8747
I569
atp8748
Rp8749
sI-709
g1
((lp8750
I568
aI1515
atp8751
Rp8752
sI-708
g1
((lp8753
I566
atp8754
Rp8755
sI-707
g1
((lp8756
I566
atp8757
Rp8758
sI-706
g1
((lp8759
I566
atp8760
Rp8761
sI-705
g1
((lp8762
I564
atp8763
Rp8764
sI-704
g1
((lp8765
I564
atp8766
Rp8767
sI-703
g1
((lp8768
I562
atp8769
Rp8770
sI-702
g1
((lp8771
I560
atp8772
Rp8773
sI-701
g1
((lp8774
I560
atp8775
Rp8776
sI-700
g1
((lp8777
I560
atp8778
Rp8779
sI-699
g1
((lp8780
I555
atp8781
Rp8782
sI-698
g1
((lp8783
I555
atp8784
Rp8785
sI-697
g1
((lp8786
I555
atp8787
Rp8788
sI-696
g1
((lp8789
I553
atp8790
Rp8791
sI-695
g1
((lp8792
I550
atp8793
Rp8794
sI-694
g1
((lp8795
I550
atp8796
Rp8797
sI-693
g1
((lp8798
I550
atp8799
Rp8800
sI-692
g1
((lp8801
I548
atp8802
Rp8803
sI-691
g1
((lp8804
I1449
aI548
atp8805
Rp8806
sI-690
g1
((lp8807
I1449
aI548
atp8808
Rp8809
sI-689
g1
((lp8810
I1449
aI548
atp8811
Rp8812
sI-688
g1
((lp8813
I1449
aI548
atp8814
Rp8815
sI-687
g1
((lp8816
I546
atp8817
Rp8818
sI-686
g1
((lp8819
I546
atp8820
Rp8821
sI-685
g1
((lp8822
I546
atp8823
Rp8824
sI-684
g1
((lp8825
I545
atp8826
Rp8827
sI-683
g1
((lp8828
I544
aI1027
atp8829
Rp8830
sI-682
g1
((lp8831
I544
aI1027
atp8832
Rp8833
sI-681
g1
((lp8834
I544
aI1027
atp8835
Rp8836
sI-680
g1
((lp8837
I544
aI1027
atp8838
Rp8839
sI-679
g1
((lp8840
I543
atp8841
Rp8842
sI-678
g1
((lp8843
I537
aI572
atp8844
Rp8845
sI-677
g1
((lp8846
I536
aI1386
aI766
atp8847
Rp8848
sI-676
g1
((lp8849
I536
atp8850
Rp8851
sI-675
g1
((lp8852
I815
aI1518
aI535
atp8853
Rp8854
sI-674
g1
((lp8855
I532
atp8856
Rp8857
sI-673
g1
((lp8858
I532
atp8859
Rp8860
sI-672
g1
((lp8861
I532
atp8862
Rp8863
sI-671
g1
((lp8864
I532
atp8865
Rp8866
sI-670
g1
((lp8867
I531
atp8868
Rp8869
sI-669
g1
((lp8870
I531
atp8871
Rp8872
sI-668
g1
((lp8873
I1874
aI531
atp8874
Rp8875
sI-667
g1
((lp8876
I531
atp8877
Rp8878
sI-666
g1
((lp8879
I531
atp8880
Rp8881
sI-665
g1
((lp8882
I530
aI894
atp8883
Rp8884
sI-664
g1
((lp8885
I530
aI894
atp8886
Rp8887
sI-663
g1
((lp8888
I528
atp8889
Rp8890
sI-662
g1
((lp8891
I1483
aI526
atp8892
Rp8893
sI-661
g1
((lp8894
I526
atp8895
Rp8896
sI-660
g1
((lp8897
I525
aI527
atp8898
Rp8899
sI-659
g1
((lp8900
I1113
aI525
aI527
atp8901
Rp8902
sI-658
g1
((lp8903
I1113
aI525
aI527
atp8904
Rp8905
sI-657
g1
((lp8906
I1113
aI525
aI527
atp8907
Rp8908
sI-656
g1
((lp8909
I549
aI1126
aI653
aI525
aI1301
aI1113
aI527
atp8910
Rp8911
sI-655
g1
((lp8912
I521
atp8913
Rp8914
sI-654
g1
((lp8915
I521
atp8916
Rp8917
sI-653
g1
((lp8918
I521
aI642
atp8919
Rp8920
sI-652
g1
((lp8921
I519
atp8922
Rp8923
sI-651
g1
((lp8924
I519
atp8925
Rp8926
sI-650
g1
((lp8927
I519
atp8928
Rp8929
sI-649
g1
((lp8930
I515
atp8931
Rp8932
sI-648
g1
((lp8933
I515
atp8934
Rp8935
sI-647
g1
((lp8936
I513
aI1103
atp8937
Rp8938
sI-646
g1
((lp8939
I513
atp8940
Rp8941
sI-645
g1
((lp8942
I513
aI1103
atp8943
Rp8944
sI-644
g1
((lp8945
I1424
aI513
aI1259
aI1397
aI542
atp8946
Rp8947
sI-643
g1
((lp8948
I513
atp8949
Rp8950
sI-642
g1
((lp8951
I513
atp8952
Rp8953
sI-641
g1
((lp8954
I509
aI967
atp8955
Rp8956
sI-640
g1
((lp8957
I506
atp8958
Rp8959
sI-639
g1
((lp8960
I506
atp8961
Rp8962
sI-638
g1
((lp8963
I1543
aI1916
aI1904
aI953
aI506
aI1564
atp8964
Rp8965
sI-637
g1
((lp8966
I503
atp8967
Rp8968
sI-636
g1
((lp8969
I503
atp8970
Rp8971
sI-635
g1
((lp8972
I503
atp8973
Rp8974
sI-634
g1
((lp8975
I792
aI503
atp8976
Rp8977
sI-633
g1
((lp8978
I619
aI625
aI543
aI503
atp8979
Rp8980
sI-632
g1
((lp8981
I500
atp8982
Rp8983
sI-631
g1
((lp8984
I498
atp8985
Rp8986
sI-630
g1
((lp8987
I498
atp8988
Rp8989
sI-629
g1
((lp8990
I498
atp8991
Rp8992
sI-628
g1
((lp8993
I498
atp8994
Rp8995
sI-627
g1
((lp8996
I496
atp8997
Rp8998
sI-626
g1
((lp8999
I496
atp9000
Rp9001
sI-625
g1
((lp9002
I496
atp9003
Rp9004
sI-624
g1
((lp9005
I496
atp9006
Rp9007
sI-623
g1
((lp9008
I496
atp9009
Rp9010
sI-622
g1
((lp9011
I496
atp9012
Rp9013
sI-621
g1
((lp9014
I494
atp9015
Rp9016
sI-620
g1
((lp9017
I494
atp9018
Rp9019
sI-619
g1
((lp9020
I494
atp9021
Rp9022
sI-618
g1
((lp9023
I1515
aI780
aI781
aI1755
aI1195
aI568
aI1745
aI1726
aI1727
aI1728
aI1730
aI1732
aI1733
aI1734
aI1736
aI1738
aI1739
aI1612
aI1613
aI1614
aI1615
aI1744
aI1617
aI1746
aI1747
aI1748
aI1742
aI1750
aI1751
aI1752
aI1753
aI1754
aI1743
aI1756
aI1757
aI1758
aI1761
aI1763
aI487
aI488
aI489
aI491
aI492
aI1741
aI1749
atp9024
Rp9025
sI-617
g1
((lp9026
I486
atp9027
Rp9028
sI-616
g1
((lp9029
I482
atp9030
Rp9031
sI-615
g1
((lp9032
I481
atp9033
Rp9034
sI-614
g1
((lp9035
I476
atp9036
Rp9037
sI-613
g1
((lp9038
I473
atp9039
Rp9040
sI-612
g1
((lp9041
I471
atp9042
Rp9043
sI-611
g1
((lp9044
I471
atp9045
Rp9046
sI-610
g1
((lp9047
I471
atp9048
Rp9049
sI-609
g1
((lp9050
I555
aI468
atp9051
Rp9052
sI-608
g1
((lp9053
I468
atp9054
Rp9055
sI-607
g1
((lp9056
I468
atp9057
Rp9058
sI-606
g1
((lp9059
I466
aI1818
aI670
atp9060
Rp9061
sI-605
g1
((lp9062
I466
atp9063
Rp9064
sI-604
g1
((lp9065
I466
atp9066
Rp9067
sI-603
g1
((lp9068
I464
aI1228
atp9069
Rp9070
sI-602
g1
((lp9071
I1568
aI1894
aI1895
aI1896
aI459
aI1903
atp9072
Rp9073
sI-601
g1
((lp9074
I459
atp9075
Rp9076
sI-600
g1
((lp9077
I456
atp9078
Rp9079
sI-599
g1
((lp9080
I456
aI1458
atp9081
Rp9082
sI-598
g1
((lp9083
I456
atp9084
Rp9085
sI-597
g1
((lp9086
I454
atp9087
Rp9088
sI-596
g1
((lp9089
I454
atp9090
Rp9091
sI-595
g1
((lp9092
I454
atp9093
Rp9094
sI-594
g1
((lp9095
I453
atp9096
Rp9097
sI-593
g1
((lp9098
I450
atp9099
Rp9100
sI-592
g1
((lp9101
I444
atp9102
Rp9103
sI-591
g1
((lp9104
I444
atp9105
Rp9106
sI-590
g1
((lp9107
I444
atp9108
Rp9109
sI-589
g1
((lp9110
I444
atp9111
Rp9112
sI-588
g1
((lp9113
I914
aI444
atp9114
Rp9115
sI-587
g1
((lp9116
I444
atp9117
Rp9118
sI-586
g1
((lp9119
I442
atp9120
Rp9121
sI-585
g1
((lp9122
I440
aI584
aI1532
aI1789
aI1231
atp9123
Rp9124
sI-584
g1
((lp9125
I439
atp9126
Rp9127
sI-583
g1
((lp9128
I438
atp9129
Rp9130
sI-582
g1
((lp9131
I438
atp9132
Rp9133
sI-581
g1
((lp9134
I437
atp9135
Rp9136
sI-580
g1
((lp9137
I435
atp9138
Rp9139
sI-579
g1
((lp9140
I435
atp9141
Rp9142
sI-578
g1
((lp9143
I753
aI435
aI716
atp9144
Rp9145
sI-577
g1
((lp9146
I433
aI812
aI1725
atp9147
Rp9148
sI-576
g1
((lp9149
I433
atp9150
Rp9151
sI-575
g1
((lp9152
I433
atp9153
Rp9154
sI-574
g1
((lp9155
I433
aI812
aI1725
atp9156
Rp9157
sI-573
g1
((lp9158
I432
atp9159
Rp9160
sI-572
g1
((lp9161
I432
atp9162
Rp9163
sI-571
g1
((lp9164
I430
atp9165
Rp9166
sI-570
g1
((lp9167
I1050
aI430
atp9168
Rp9169
sI-569
g1
((lp9170
I430
aI535
atp9171
Rp9172
sI-568
g1
((lp9173
I429
atp9174
Rp9175
sI-567
g1
((lp9176
I428
aI1869
aI1358
aI1735
atp9177
Rp9178
sI-566
g1
((lp9179
I428
atp9180
Rp9181
sI-565
g1
((lp9182
I427
atp9183
Rp9184
sI-564
g1
((lp9185
I427
atp9186
Rp9187
sI-563
g1
((lp9188
I427
atp9189
Rp9190
sI-562
g1
((lp9191
I425
atp9192
Rp9193
sI-561
g1
((lp9194
I423
atp9195
Rp9196
sI-560
g1
((lp9197
I417
atp9198
Rp9199
sI-559
g1
((lp9200
I417
atp9201
Rp9202
sI-558
g1
((lp9203
I417
aI482
atp9204
Rp9205
sI-557
g1
((lp9206
I409
atp9207
Rp9208
sI-556
g1
((lp9209
I409
atp9210
Rp9211
sI-555
g1
((lp9212
I409
aI1303
aI1121
atp9213
Rp9214
sI-554
g1
((lp9215
I407
atp9216
Rp9217
sI-553
g1
((lp9218
I407
atp9219
Rp9220
sI-552
g1
((lp9221
I760
aI986
aI406
atp9222
Rp9223
sI-551
g1
((lp9224
I760
aI769
aI986
aI406
atp9225
Rp9226
sI-550
g1
((lp9227
I402
atp9228
Rp9229
sI-549
g1
((lp9230
I901
aI1480
aI396
aI845
aI625
aI792
atp9231
Rp9232
sI-548
g1
((lp9233
I394
atp9234
Rp9235
sI-547
g1
((lp9236
I394
atp9237
Rp9238
sI-546
g1
((lp9239
I394
aI643
aI676
aI739
atp9240
Rp9241
sI-545
g1
((lp9242
I393
atp9243
Rp9244
sI-544
g1
((lp9245
I393
aI526
atp9246
Rp9247
sI-543
g1
((lp9248
I768
aI393
atp9249
Rp9250
sI-542
g1
((lp9251
I392
aI503
atp9252
Rp9253
sI-541
g1
((lp9254
I392
atp9255
Rp9256
sI-540
g1
((lp9257
I392
atp9258
Rp9259
sI-539
g1
((lp9260
I392
atp9261
Rp9262
sI-538
g1
((lp9263
I391
atp9264
Rp9265
sI-537
g1
((lp9266
I391
atp9267
Rp9268
sI-536
g1
((lp9269
I1945
aI947
aI1420
aI1469
aI390
atp9270
Rp9271
sI-535
g1
((lp9272
I1945
aI947
aI1420
aI1469
aI390
atp9273
Rp9274
sI-534
g1
((lp9275
I388
atp9276
Rp9277
sI-533
g1
((lp9278
I387
atp9279
Rp9280
sI-532
g1
((lp9281
I387
atp9282
Rp9283
sI-531
g1
((lp9284
I387
atp9285
Rp9286
sI-530
g1
((lp9287
I560
aI771
aI387
atp9288
Rp9289
sI-529
g1
((lp9290
I387
atp9291
Rp9292
sI-528
g1
((lp9293
I387
atp9294
Rp9295
sI-527
g1
((lp9296
I387
atp9297
Rp9298
sI-526
g1
((lp9299
I650
aI387
atp9300
Rp9301
sI-525
g1
((lp9302
I385
aI761
aI553
atp9303
Rp9304
sI-524
g1
((lp9305
I385
atp9306
Rp9307
sI-523
g1
((lp9308
I384
atp9309
Rp9310
sI-522
g1
((lp9311
I383
atp9312
Rp9313
sI-521
g1
((lp9314
I382
atp9315
Rp9316
sI-520
g1
((lp9317
I382
aI943
atp9318
Rp9319
sI-519
g1
((lp9320
I1129
aI382
atp9321
Rp9322
sI-518
g1
((lp9323
I382
atp9324
Rp9325
sI-517
g1
((lp9326
I379
aI1124
atp9327
Rp9328
sI-516
g1
((lp9329
I379
atp9330
Rp9331
sI-515
g1
((lp9332
I379
atp9333
Rp9334
sI-514
g1
((lp9335
I379
atp9336
Rp9337
sI-513
g1
((lp9338
I379
atp9339
Rp9340
sI-512
g1
((lp9341
I379
atp9342
Rp9343
sI-511
g1
((lp9344
I379
atp9345
Rp9346
sI-510
g1
((lp9347
I1830
aI1546
aI749
aI1198
aI1044
aI377
atp9348
Rp9349
sI-509
g1
((lp9350
I1830
aI1546
aI749
aI1198
aI1044
aI377
atp9351
Rp9352
sI-508
g1
((lp9353
I1830
aI1546
aI749
aI1198
aI1044
aI377
atp9354
Rp9355
sI-507
g1
((lp9356
I1830
aI1546
aI749
aI1198
aI1044
aI377
atp9357
Rp9358
sI-506
g1
((lp9359
I1830
aI1546
aI749
aI1198
aI751
aI1044
aI377
atp9360
Rp9361
sI-505
g1
((lp9362
I1830
aI1546
aI749
aI1198
aI1044
aI377
atp9363
Rp9364
sI-504
g1
((lp9365
I375
atp9366
Rp9367
sI-503
g1
((lp9368
I375
atp9369
Rp9370
sI-502
g1
((lp9371
I1955
aI375
atp9372
Rp9373
sI-501
g1
((lp9374
I375
atp9375
Rp9376
sI-500
g1
((lp9377
I375
atp9378
Rp9379
sI-499
g1
((lp9380
I374
atp9381
Rp9382
sI-498
g1
((lp9383
I374
atp9384
Rp9385
sI-497
g1
((lp9386
I374
atp9387
Rp9388
sI-496
g1
((lp9389
I1480
aI1386
aI374
atp9390
Rp9391
sI-495
g1
((lp9392
I374
atp9393
Rp9394
sI-494
g1
((lp9395
I374
atp9396
Rp9397
sI-493
g1
((lp9398
I842
aI374
atp9399
Rp9400
sI-492
g1
((lp9401
I1480
aI842
aI374
atp9402
Rp9403
sI-491
g1
((lp9404
I373
atp9405
Rp9406
sI-490
g1
((lp9407
I1618
aI373
aI1255
atp9408
Rp9409
sI-489
g1
((lp9410
I371
atp9411
Rp9412
sI-488
g1
((lp9413
I371
atp9414
Rp9415
sI-487
g1
((lp9416
I366
atp9417
Rp9418
sI-486
g1
((lp9419
I366
atp9420
Rp9421
sI-485
g1
((lp9422
I363
aI365
atp9423
Rp9424
sI-484
g1
((lp9425
I363
aI365
atp9426
Rp9427
sI-483
g1
((lp9428
I363
aI365
atp9429
Rp9430
sI-482
g1
((lp9431
I363
aI365
atp9432
Rp9433
sI-481
g1
((lp9434
I363
aI365
atp9435
Rp9436
sI-480
g1
((lp9437
I361
aI1242
atp9438
Rp9439
sI-479
g1
((lp9440
I361
atp9441
Rp9442
sI-478
g1
((lp9443
I360
atp9444
Rp9445
sI-477
g1
((lp9446
I359
atp9447
Rp9448
sI-476
g1
((lp9449
I359
atp9450
Rp9451
sI-475
g1
((lp9452
I897
aI356
atp9453
Rp9454
sI-474
g1
((lp9455
I897
aI356
atp9456
Rp9457
sI-473
g1
((lp9458
I897
aI356
atp9459
Rp9460
sI-472
g1
((lp9461
I897
aI356
atp9462
Rp9463
sI-471
g1
((lp9464
I355
atp9465
Rp9466
sI-470
g1
((lp9467
I355
atp9468
Rp9469
sI-469
g1
((lp9470
I353
aI526
atp9471
Rp9472
sI-468
g1
((lp9473
I352
atp9474
Rp9475
sI-467
g1
((lp9476
I352
atp9477
Rp9478
sI-466
g1
((lp9479
I460
aI351
atp9480
Rp9481
sI-465
g1
((lp9482
I1056
aI1058
aI1059
aI565
aI350
aI1055
atp9483
Rp9484
sI-464
g1
((lp9485
I1466
aI348
atp9486
Rp9487
sI-463
g1
((lp9488
I1466
aI348
atp9489
Rp9490
sI-462
g1
((lp9491
I1155
aI823
aI1079
aI1466
aI348
aI1534
atp9492
Rp9493
sI-461
g1
((lp9494
I1466
aI348
aI1293
atp9495
Rp9496
sI-460
g1
((lp9497
I347
atp9498
Rp9499
sI-459
g1
((lp9500
I340
atp9501
Rp9502
sI-458
g1
((lp9503
I339
atp9504
Rp9505
sI-457
g1
((lp9506
I339
atp9507
Rp9508
sI-456
g1
((lp9509
I336
atp9510
Rp9511
sI-455
g1
((lp9512
I335
atp9513
Rp9514
sI-454
g1
((lp9515
I335
atp9516
Rp9517
sI-453
g1
((lp9518
I613
aI335
atp9519
Rp9520
sI-452
g1
((lp9521
I335
atp9522
Rp9523
sI-451
g1
((lp9524
I481
aI1578
aI1227
aI966
aI335
atp9525
Rp9526
sI-450
g1
((lp9527
I335
atp9528
Rp9529
sI-449
g1
((lp9530
I729
aI1382
aI334
atp9531
Rp9532
sI-448
g1
((lp9533
I729
aI334
atp9534
Rp9535
sI-447
g1
((lp9536
I334
atp9537
Rp9538
sI-446
g1
((lp9539
I334
atp9540
Rp9541
sI-445
g1
((lp9542
I331
atp9543
Rp9544
sI-444
g1
((lp9545
I632
aI1457
aI331
aI1963
aI1118
atp9546
Rp9547
sI-443
g1
((lp9548
I632
aI331
atp9549
Rp9550
sI-442
g1
((lp9551
I632
aI331
atp9552
Rp9553
sI-441
g1
((lp9554
I632
aI658
aI331
atp9555
Rp9556
sI-440
g1
((lp9557
I632
aI331
aI941
atp9558
Rp9559
sI-439
g1
((lp9560
I329
aI902
atp9561
Rp9562
sI-438
g1
((lp9563
I329
aI902
atp9564
Rp9565
sI-437
g1
((lp9566
I329
aI1294
aI902
aI1790
atp9567
Rp9568
sI-436
g1
((lp9569
I329
aI902
atp9570
Rp9571
sI-435
g1
((lp9572
I329
aI902
atp9573
Rp9574
sI-434
g1
((lp9575
I329
aI902
atp9576
Rp9577
sI-433
g1
((lp9578
I328
aI924
aI1542
aI335
atp9579
Rp9580
sI-432
g1
((lp9581
I328
aI1365
atp9582
Rp9583
sI-431
g1
((lp9584
I327
atp9585
Rp9586
sI-430
g1
((lp9587
I327
atp9588
Rp9589
sI-429
g1
((lp9590
I327
atp9591
Rp9592
sI-428
g1
((lp9593
I619
aI324
atp9594
Rp9595
sI-427
g1
((lp9596
I323
aI1699
atp9597
Rp9598
sI-426
g1
((lp9599
I323
aI1699
atp9600
Rp9601
sI-425
g1
((lp9602
I323
aI1699
atp9603
Rp9604
sI-424
g1
((lp9605
I323
aI1699
atp9606
Rp9607
sI-423
g1
((lp9608
I322
atp9609
Rp9610
sI-422
g1
((lp9611
I322
atp9612
Rp9613
sI-421
g1
((lp9614
I322
atp9615
Rp9616
sI-420
g1
((lp9617
I320
atp9618
Rp9619
sI-419
g1
((lp9620
I320
atp9621
Rp9622
sI-418
g1
((lp9623
I319
atp9624
Rp9625
sI-417
g1
((lp9626
I453
aI806
aI1641
aI335
aI1403
aI318
aI447
atp9627
Rp9628
sI-416
g1
((lp9629
I316
atp9630
Rp9631
sI-415
g1
((lp9632
I315
aI820
atp9633
Rp9634
sI-414
g1
((lp9635
I315
aI820
atp9636
Rp9637
sI-413
g1
((lp9638
I1185
aI314
aI372
atp9639
Rp9640
sI-412
g1
((lp9641
I1185
aI314
aI372
atp9642
Rp9643
sI-411
g1
((lp9644
I1185
aI314
aI372
atp9645
Rp9646
sI-410
g1
((lp9647
I752
aI1185
aI314
aI372
aI774
atp9648
Rp9649
sI-409
g1
((lp9650
I1185
aI774
aI616
aI622
aI752
aI372
aI314
atp9651
Rp9652
sI-408
g1
((lp9653
I752
aI1185
aI314
aI372
aI774
atp9654
Rp9655
sI-407
g1
((lp9656
I752
aI1185
aI314
aI372
aI774
atp9657
Rp9658
sI-406
g1
((lp9659
I627
aI1185
aI1083
aI932
aI774
aI1068
aI1035
aI1004
aI910
aI752
aI849
aI819
aI372
aI974
aI314
aI1051
atp9660
Rp9661
sI-405
g1
((lp9662
I313
atp9663
Rp9664
sI-404
g1
((lp9665
I308
atp9666
Rp9667
sI-403
g1
((lp9668
I308
atp9669
Rp9670
sI-402
g1
((lp9671
I307
atp9672
Rp9673
sI-401
g1
((lp9674
I307
atp9675
Rp9676
sI-400
g1
((lp9677
I307
atp9678
Rp9679
sI-399
g1
((lp9680
I307
atp9681
Rp9682
sI-398
g1
((lp9683
I307
atp9684
Rp9685
sI-397
g1
((lp9686
I307
atp9687
Rp9688
sI-396
g1
((lp9689
I1456
aI306
aI803
atp9690
Rp9691
sI-395
g1
((lp9692
I306
atp9693
Rp9694
sI-394
g1
((lp9695
I304
atp9696
Rp9697
sI-393
g1
((lp9698
I304
atp9699
Rp9700
sI-392
g1
((lp9701
I304
atp9702
Rp9703
sI-391
g1
((lp9704
I304
atp9705
Rp9706
sI-390
g1
((lp9707
I355
aI1705
aI394
aI302
aI1871
aI1679
atp9708
Rp9709
sI-389
g1
((lp9710
I658
aI355
aI302
atp9711
Rp9712
sI-388
g1
((lp9713
I301
atp9714
Rp9715
sI-387
g1
((lp9716
I301
aI838
atp9717
Rp9718
sI-386
g1
((lp9719
I301
aI838
atp9720
Rp9721
sI-385
g1
((lp9722
I299
atp9723
Rp9724
sI-384
g1
((lp9725
I299
atp9726
Rp9727
sI-383
g1
((lp9728
I298
aI363
aI300
aI365
atp9729
Rp9730
sI-382
g1
((lp9731
I298
aI300
aI306
aI783
atp9732
Rp9733
sI-381
g1
((lp9734
I298
aI300
atp9735
Rp9736
sI-380
g1
((lp9737
I297
atp9738
Rp9739
sI-379
g1
((lp9740
I297
atp9741
Rp9742
sI-378
g1
((lp9743
I296
aI746
aI837
atp9744
Rp9745
sI-377
g1
((lp9746
I476
aI373
aI550
aI295
atp9747
Rp9748
sI-376
g1
((lp9749
I476
aI373
aI550
aI295
atp9750
Rp9751
sI-375
g1
((lp9752
I402
aI476
aI373
aI550
aI295
atp9753
Rp9754
sI-374
g1
((lp9755
I550
aI295
aI427
aI432
aI402
aI373
aI476
aI1342
atp9756
Rp9757
sI-373
g1
((lp9758
I295
atp9759
Rp9760
sI-372
g1
((lp9761
I295
atp9762
Rp9763
sI-371
g1
((lp9764
I294
atp9765
Rp9766
sI-370
g1
((lp9767
I292
atp9768
Rp9769
sI-369
g1
((lp9770
I771
aI292
aI307
aI1588
aI1273
aI1180
atp9771
Rp9772
sI-368
g1
((lp9773
I292
atp9774
Rp9775
sI-367
g1
((lp9776
I292
atp9777
Rp9778
sI-366
g1
((lp9779
I292
atp9780
Rp9781
sI-365
g1
((lp9782
I283
atp9783
Rp9784
sI-364
g1
((lp9785
I282
atp9786
Rp9787
sI-363
g1
((lp9788
I282
atp9789
Rp9790
sI-362
g1
((lp9791
I282
atp9792
Rp9793
sI-361
g1
((lp9794
I1280
aI359
aI789
aI741
aI279
atp9795
Rp9796
sI-360
g1
((lp9797
I520
aI1729
aI278
atp9798
Rp9799
sI-359
g1
((lp9800
I520
aI1729
aI278
atp9801
Rp9802
sI-358
g1
((lp9803
I324
aI709
aI1590
aI652
aI558
aI1043
aI277
aI854
aI855
atp9804
Rp9805
sI-357
g1
((lp9806
I449
aI324
aI517
aI619
aI652
aI558
aI1043
aI277
aI854
aI709
atp9807
Rp9808
sI-356
g1
((lp9809
I274
atp9810
Rp9811
sI-355
g1
((lp9812
I768
aI1905
aI652
aI901
aI271
atp9813
Rp9814
sI-354
g1
((lp9815
I976
aI270
aI1031
atp9816
Rp9817
sI-353
g1
((lp9818
I1056
aI1089
aI1058
aI1059
aI265
aI779
aI1118
aI1154
aI1461
aI913
aI1138
aI916
aI565
aI1877
aI283
aI350
aI1055
atp9819
Rp9820
sI-352
g1
((lp9821
I262
atp9822
Rp9823
sI-351
g1
((lp9824
I842
aI262
atp9825
Rp9826
sI-350
g1
((lp9827
I870
aI262
aI1823
atp9828
Rp9829
sI-349
g1
((lp9830
I261
atp9831
Rp9832
sI-348
g1
((lp9833
I449
aI258
aI1963
aI324
aI517
aI619
aI652
aI558
aI1043
aI277
aI854
aI709
atp9834
Rp9835
sI-347
g1
((lp9836
I258
atp9837
Rp9838
sI-346
g1
((lp9839
I258
atp9840
Rp9841
sI-345
g1
((lp9842
I449
aI258
aI517
aI558
aI709
atp9843
Rp9844
sI-344
g1
((lp9845
I449
aI258
aI324
aI517
aI619
aI652
aI558
aI1043
aI277
aI854
aI709
atp9846
Rp9847
sI-343
g1
((lp9848
I256
aI449
aI517
aI652
aI1043
aI277
aI854
aI667
aI768
atp9849
Rp9850
sI-342
g1
((lp9851
I256
atp9852
Rp9853
sI-341
g1
((lp9854
I256
aI353
aI449
aI885
aI1590
aI855
aI543
atp9855
Rp9856
sI-340
g1
((lp9857
I256
aI353
aI258
aI667
aI324
aI517
aI449
aI393
aI526
aI709
aI1043
aI277
aI854
aI885
aI1466
aI558
aI348
aI543
atp9858
Rp9859
sI-339
g1
((lp9860
I256
aI353
aI643
aI676
aI739
aI885
aI1590
aI855
aI792
aI1700
aI667
atp9861
Rp9862
sI-338
g1
((lp9863
I253
atp9864
Rp9865
sI-337
g1
((lp9866
I291
aI362
aI395
aI398
aI529
aI276
aI638
aI252
aI714
aI286
atp9867
Rp9868
sI-336
g1
((lp9869
I251
atp9870
Rp9871
sI-335
g1
((lp9872
I251
atp9873
Rp9874
sI-334
g1
((lp9875
I251
atp9876
Rp9877
sI-333
g1
((lp9878
I473
aI555
aI468
aI245
aI1519
atp9879
Rp9880
sI-332
g1
((lp9881
I344
aI485
aI266
aI461
aI241
aI312
atp9882
Rp9883
sI-331
g1
((lp9884
I238
atp9885
Rp9886
sI-330
g1
((lp9887
I238
atp9888
Rp9889
sI-329
g1
((lp9890
I238
atp9891
Rp9892
sI-328
g1
((lp9893
I1125
aI237
aI391
atp9894
Rp9895
sI-327
g1
((lp9896
I237
atp9897
Rp9898
sI-326
g1
((lp9899
I232
atp9900
Rp9901
sI-325
g1
((lp9902
I229
atp9903
Rp9904
sI-324
g1
((lp9905
I228
atp9906
Rp9907
sI-323
g1
((lp9908
I227
aI687
atp9909
Rp9910
sI-322
g1
((lp9911
I226
atp9912
Rp9913
sI-321
g1
((lp9914
I225
aI1933
atp9915
Rp9916
sI-320
g1
((lp9917
I225
atp9918
Rp9919
sI-319
g1
((lp9920
I225
aI309
atp9921
Rp9922
sI-318
g1
((lp9923
I225
atp9924
Rp9925
sI-317
g1
((lp9926
I225
atp9927
Rp9928
sI-316
g1
((lp9929
I225
atp9930
Rp9931
sI-315
g1
((lp9932
I224
atp9933
Rp9934
sI-314
g1
((lp9935
I929
aI1190
aI264
aI526
aI948
aI220
atp9936
Rp9937
sI-313
g1
((lp9938
I289
aI1435
aI269
aI219
aI254
aI607
atp9939
Rp9940
sI-312
g1
((lp9941
I289
aI1768
aI778
aI1644
aI269
aI694
aI219
aI254
atp9942
Rp9943
sI-311
g1
((lp9944
I289
aI219
aI269
aI254
aI1909
atp9945
Rp9946
sI-310
g1
((lp9947
I641
aI218
aI1561
aI479
atp9948
Rp9949
sI-309
g1
((lp9950
I641
aI218
aI1561
aI479
atp9951
Rp9952
sI-308
g1
((lp9953
I217
aI701
aI1081
atp9954
Rp9955
sI-307
g1
((lp9956
I216
atp9957
Rp9958
sI-306
g1
((lp9959
I257
aI369
aI211
aI215
aI669
aI1535
atp9960
Rp9961
sI-305
g1
((lp9962
I209
atp9963
Rp9964
sI-304
g1
((lp9965
I206
atp9966
Rp9967
sI-303
g1
((lp9968
I699
aI613
aI1773
aI206
aI1933
aI1012
aI1465
aI827
atp9969
Rp9970
sI-302
g1
((lp9971
I205
atp9972
Rp9973
sI-301
g1
((lp9974
I204
aI1934
atp9975
Rp9976
sI-300
g1
((lp9977
I744
aI202
atp9978
Rp9979
sI-299
g1
((lp9980
I199
atp9981
Rp9982
sI-298
g1
((lp9983
I199
atp9984
Rp9985
sI-297
g1
((lp9986
I504
aI688
aI306
aI197
aI911
atp9987
Rp9988
sI-296
g1
((lp9989
I504
aI197
aI911
atp9990
Rp9991
sI-295
g1
((lp9992
I504
aI197
aI911
atp9993
Rp9994
sI-294
g1
((lp9995
I504
aI197
aI911
atp9996
Rp9997
sI-293
g1
((lp9998
I648
aI1408
aI196
aI1857
aI551
atp9999
Rp10000
sI-292
g1
((lp10001
I194
aI1163
atp10002
Rp10003
sI-291
g1
((lp10004
I344
aI291
aI484
aI485
aI529
aI296
aI714
aI266
aI395
aI461
aI398
aI241
aI244
aI746
aI837
aI312
aI276
aI252
aI362
aI286
aI191
atp10005
Rp10006
sI-290
g1
((lp10007
I266
aI395
aI398
aI529
aI276
aI1432
aI286
aI291
aI296
aI312
aI191
aI837
aI714
aI461
aI344
aI484
aI485
aI746
aI241
aI244
aI252
aI362
atp10008
Rp10009
sI-289
g1
((lp10010
I344
aI291
aI484
aI485
aI529
aI296
aI714
aI266
aI395
aI461
aI398
aI241
aI244
aI746
aI837
aI312
aI276
aI252
aI362
aI286
aI191
atp10011
Rp10012
sI-288
g1
((lp10013
I484
aI244
aI191
atp10014
Rp10015
sI-287
g1
((lp10016
I1477
aI646
aI777
aI1642
aI1388
aI1296
aI851
aI533
aI1848
aI186
aI1819
atp10017
Rp10018
sI-286
g1
((lp10019
I185
atp10020
Rp10021
sI-285
g1
((lp10022
I185
atp10023
Rp10024
sI-284
g1
((lp10025
I184
atp10026
Rp10027
sI-283
g1
((lp10028
I184
atp10029
Rp10030
sI-282
g1
((lp10031
I898
aI1528
aI1928
aI503
aI302
aI1105
aI658
aI531
aI823
aI184
aI1534
atp10032
Rp10033
sI-281
g1
((lp10034
I1663
aI175
atp10035
Rp10036
sI-280
g1
((lp10037
I1663
aI175
atp10038
Rp10039
sI-279
g1
((lp10040
I1663
aI175
atp10041
Rp10042
sI-278
g1
((lp10043
I173
atp10044
Rp10045
sI-277
g1
((lp10046
I329
aI173
aI902
atp10047
Rp10048
sI-276
g1
((lp10049
I172
atp10050
Rp10051
sI-275
g1
((lp10052
I171
atp10053
Rp10054
sI-274
g1
((lp10055
I1665
aI171
aI945
aI946
aI979
aI950
atp10056
Rp10057
sI-273
g1
((lp10058
I170
atp10059
Rp10060
sI-272
g1
((lp10061
I176
aI169
atp10062
Rp10063
sI-271
g1
((lp10064
I168
atp10065
Rp10066
sI-270
g1
((lp10067
I168
atp10068
Rp10069
sI-269
g1
((lp10070
I167
atp10071
Rp10072
sI-268
g1
((lp10073
I875
aI183
aI167
atp10074
Rp10075
sI-267
g1
((lp10076
I363
aI875
aI183
aI365
aI167
atp10077
Rp10078
sI-266
g1
((lp10079
I875
aI183
aI167
atp10080
Rp10081
sI-265
g1
((lp10082
I875
aI183
aI167
atp10083
Rp10084
sI-264
g1
((lp10085
I875
aI167
aI363
aI365
aI183
aI604
atp10086
Rp10087
sI-263
g1
((lp10088
I875
aI183
aI326
aI167
atp10089
Rp10090
sI-262
g1
((lp10091
I875
aI183
aI167
atp10092
Rp10093
sI-261
g1
((lp10094
I875
aI183
aI167
atp10095
Rp10096
sI-260
g1
((lp10097
I166
atp10098
Rp10099
sI-259
g1
((lp10100
I1816
aI165
atp10101
Rp10102
sI-258
g1
((lp10103
I162
aI1500
aI862
atp10104
Rp10105
sI-257
g1
((lp10106
I385
aI418
aI233
aI591
aI596
aI553
aI280
aI761
aI159
atp10107
Rp10108
sI-256
g1
((lp10109
I385
aI418
aI233
aI591
aI596
aI553
aI280
aI761
aI159
atp10110
Rp10111
sI-255
g1
((lp10112
I385
aI418
aI233
aI591
aI596
aI373
aI553
aI280
aI761
aI159
atp10113
Rp10114
sI-254
g1
((lp10115
I385
aI418
aI233
aI591
aI596
aI553
aI280
aI761
aI159
atp10116
Rp10117
sI-253
g1
((lp10118
I385
aI418
aI233
aI591
aI596
aI553
aI280
aI761
aI159
atp10119
Rp10120
sI-252
g1
((lp10121
I155
atp10122
Rp10123
sI-251
g1
((lp10124
I155
aI1582
aI1263
atp10125
Rp10126
sI-250
g1
((lp10127
I530
aI155
aI1554
aI894
atp10128
Rp10129
sI-249
g1
((lp10130
I465
aI155
atp10131
Rp10132
sI-248
g1
((lp10133
I155
atp10134
Rp10135
sI-247
g1
((lp10136
I154
atp10137
Rp10138
sI-246
g1
((lp10139
I256
aI353
aI495
aI885
aI153
aI667
aI543
atp10140
Rp10141
sI-245
g1
((lp10142
I897
aI902
aI1800
aI522
aI1805
aI502
aI530
aI153
aI155
aI1564
aI417
aI1576
aI811
aI1454
aI816
aI1609
aI953
aI1594
aI1470
aI1603
aI325
aI329
aI1105
aI482
aI356
aI1001
aI1554
aI495
aI1904
aI886
aI873
aI506
aI379
aI1916
aI1149
aI894
atp10143
Rp10144
sI-244
g1
((lp10145
I197
aI911
aI633
aI504
aI153
aI495
atp10146
Rp10147
sI-243
g1
((lp10148
I153
aI495
atp10149
Rp10150
sI-242
g1
((lp10151
I504
aI153
aI911
aI197
aI495
atp10152
Rp10153
sI-241
g1
((lp10154
I1628
aI153
aI1556
aI495
atp10155
Rp10156
sI-240
g1
((lp10157
I153
aI495
atp10158
Rp10159
sI-239
g1
((lp10160
I153
aI495
atp10161
Rp10162
sI-238
g1
((lp10163
I152
atp10164
Rp10165
sI-237
g1
((lp10166
I150
atp10167
Rp10168
sI-236
g1
((lp10169
I149
atp10170
Rp10171
sI-235
g1
((lp10172
I149
atp10173
Rp10174
sI-234
g1
((lp10175
I147
aI1932
aI1078
aI415
atp10176
Rp10177
sI-233
g1
((lp10178
I1496
aI146
aI1132
aI386
aI198
atp10179
Rp10180
sI-232
g1
((lp10181
I354
aI843
aI1702
aI651
aI656
aI145
aI867
aI1589
aI1379
aI541
aI1941
atp10182
Rp10183
sI-231
g1
((lp10184
I144
atp10185
Rp10186
sI-230
g1
((lp10187
I144
aI827
aI1814
atp10188
Rp10189
sI-229
g1
((lp10190
I144
atp10191
Rp10192
sI-228
g1
((lp10193
I144
aI363
aI261
aI365
atp10194
Rp10195
sI-227
g1
((lp10196
I1190
aI904
aI143
aI185
aI987
aI1052
atp10197
Rp10198
sI-226
g1
((lp10199
I143
atp10200
Rp10201
sI-225
g1
((lp10202
I143
atp10203
Rp10204
sI-224
g1
((lp10205
I148
aI140
atp10206
Rp10207
sI-223
g1
((lp10208
I148
aI140
atp10209
Rp10210
sI-222
g1
((lp10211
I148
aI140
atp10212
Rp10213
sI-221
g1
((lp10214
I148
aI140
atp10215
Rp10216
sI-220
g1
((lp10217
I148
aI140
atp10218
Rp10219
sI-219
g1
((lp10220
I148
aI140
aI471
atp10221
Rp10222
sI-218
g1
((lp10223
I148
aI140
atp10224
Rp10225
sI-217
g1
((lp10226
I148
aI140
atp10227
Rp10228
sI-216
g1
((lp10229
I148
aI140
atp10230
Rp10231
sI-215
g1
((lp10232
I260
aI230
aI775
aI137
aI1418
aI951
aI1597
atp10233
Rp10234
sI-214
g1
((lp10235
I136
aI1314
aI891
aI996
atp10236
Rp10237
sI-213
g1
((lp10238
I133
atp10239
Rp10240
sI-212
g1
((lp10241
I1516
aI132
aI687
atp10242
Rp10243
sI-211
g1
((lp10244
I1516
aI132
atp10245
Rp10246
sI-210
g1
((lp10247
I1410
aI131
atp10248
Rp10249
sI-209
g1
((lp10250
I1410
aI131
atp10251
Rp10252
sI-208
g1
((lp10253
I128
aI1207
atp10254
Rp10255
sI-207
g1
((lp10256
I126
atp10257
Rp10258
sI-206
g1
((lp10259
I122
atp10260
Rp10261
sI-205
g1
((lp10262
I119
atp10263
Rp10264
sI-204
g1
((lp10265
I117
atp10266
Rp10267
sI-203
g1
((lp10268
I139
aI116
atp10269
Rp10270
sI-202
g1
((lp10271
I115
aI1847
atp10272
Rp10273
sI-201
g1
((lp10274
I115
atp10275
Rp10276
sI-200
g1
((lp10277
I115
atp10278
Rp10279
sI-199
g1
((lp10280
I115
atp10281
Rp10282
sI-198
g1
((lp10283
I115
atp10284
Rp10285
sI-197
g1
((lp10286
I115
atp10287
Rp10288
sI-196
g1
((lp10289
I114
atp10290
Rp10291
sI-195
g1
((lp10292
I113
atp10293
Rp10294
sI-194
g1
((lp10295
I112
atp10296
Rp10297
sI-193
g1
((lp10298
I194
aI1163
aI715
aI207
aI112
aI1175
aI376
aI223
atp10299
Rp10300
sI-192
g1
((lp10301
I1283
aI1796
aI1462
aI1288
aI1674
aI1431
aI1038
aI1426
aI1305
aI1688
aI1049
aI111
aI412
aI1309
aI1054
aI1439
aI161
aI930
aI933
aI1446
aI1832
aI1838
aI1583
aI561
aI1204
aI926
aI1206
aI569
aI571
aI1077
aI1221
aI1633
aI712
aI1353
aI1230
aI1359
aI1232
aI1489
aI1358
aI1593
aI1240
aI1503
aI1249
aI1531
aI1382
aI614
aI1256
aI1623
aI1003
aI1772
aI1261
aI1774
aI1007
aI1393
aI1394
aI1396
aI1269
aI1401
aI1343
atp10302
Rp10303
sI-191
g1
((lp10304
I111
atp10305
Rp10306
sI-190
g1
((lp10307
I225
aI249
aI111
atp10308
Rp10309
sI-189
g1
((lp10310
I111
atp10311
Rp10312
sI-188
g1
((lp10313
I111
atp10314
Rp10315
sI-187
g1
((lp10316
I110
atp10317
Rp10318
sI-186
g1
((lp10319
I173
aI110
atp10320
Rp10321
sI-185
g1
((lp10322
I109
atp10323
Rp10324
sI-184
g1
((lp10325
I109
atp10326
Rp10327
sI-183
g1
((lp10328
I109
atp10329
Rp10330
sI-182
g1
((lp10331
I108
atp10332
Rp10333
sI-181
g1
((lp10334
I104
atp10335
Rp10336
sI-180
g1
((lp10337
I1444
aI103
aI1956
aI1719
aI1710
aI1239
aI505
aI923
atp10338
Rp10339
sI-179
g1
((lp10340
I1444
aI838
aI103
aI1956
aI1719
aI1710
aI1239
aI505
aI923
atp10341
Rp10342
sI-178
g1
((lp10343
I1760
aI705
aI866
aI899
aI101
aI1651
aI1450
aI1202
aI1262
aI1807
aI1264
aI178
aI275
aI1374
aI1784
aI1433
aI698
aI1563
aI1834
aI510
aI831
atp10344
Rp10345
sI-177
g1
((lp10346
I784
aI100
aI1639
atp10347
Rp10348
sI-176
g1
((lp10349
I98
atp10350
Rp10351
sI-175
g1
((lp10352
I97
aI773
aI1350
aI1409
aI1141
aI1849
aI921
aI443
atp10353
Rp10354
sI-174
g1
((lp10355
I95
atp10356
Rp10357
sI-173
g1
((lp10358
I720
aI329
aI902
aI95
atp10359
Rp10360
sI-172
g1
((lp10361
I95
atp10362
Rp10363
sI-171
g1
((lp10364
I92
atp10365
Rp10366
sI-170
g1
((lp10367
I90
atp10368
Rp10369
sI-169
g1
((lp10370
I515
aI269
aI530
aI1555
aI532
aI1432
aI155
aI289
aI546
aI1435
aI166
aI937
aI694
aI1591
aI965
aI90
aI219
aI1501
aI990
aI607
aI1644
aI624
aI254
aI1526
aI894
aI1919
atp10371
Rp10372
sI-168
g1
((lp10373
I90
atp10374
Rp10375
sI-167
g1
((lp10376
I90
atp10377
Rp10378
sI-166
g1
((lp10379
I89
atp10380
Rp10381
sI-165
g1
((lp10382
I89
atp10383
Rp10384
sI-164
g1
((lp10385
I88
aI650
atp10386
Rp10387
sI-163
g1
((lp10388
I88
aI168
aI154
atp10389
Rp10390
sI-162
g1
((lp10391
I88
atp10392
Rp10393
sI-161
g1
((lp10394
I1858
aI1572
aI1062
aI1384
aI1709
aI786
aI1843
aI692
aI1270
aI87
aI955
atp10395
Rp10396
sI-160
g1
((lp10397
I1858
aI1572
aI1062
aI1384
aI1709
aI786
aI1843
aI692
aI1270
aI87
aI955
atp10398
Rp10399
sI-159
g1
((lp10400
I1858
aI1572
aI1062
aI1384
aI1709
aI786
aI1843
aI692
aI1270
aI87
aI955
atp10401
Rp10402
sI-158
g1
((lp10403
I86
atp10404
Rp10405
sI-157
g1
((lp10406
I86
atp10407
Rp10408
sI-156
g1
((lp10409
I1928
aI1354
aI1263
aI1267
aI1909
aI86
aI1279
atp10410
Rp10411
sI-155
g1
((lp10412
I84
atp10413
Rp10414
sI-154
g1
((lp10415
I1124
aI747
aI84
aI430
atp10416
Rp10417
sI-153
g1
((lp10418
I84
atp10419
Rp10420
sI-152
g1
((lp10421
I84
atp10422
Rp10423
sI-151
g1
((lp10424
I84
aI815
atp10425
Rp10426
sI-150
g1
((lp10427
I84
atp10428
Rp10429
sI-149
g1
((lp10430
I352
aI1651
aI642
aI521
aI1450
aI1484
aI1912
aI83
aI1622
aI1811
aI474
atp10431
Rp10432
sI-148
g1
((lp10433
I82
aI563
aI1724
aI1839
atp10434
Rp10435
sI-147
g1
((lp10436
I80
aI1011
atp10437
Rp10438
sI-146
g1
((lp10439
I79
atp10440
Rp10441
sI-145
g1
((lp10442
I272
aI1579
aI163
aI1844
aI78
atp10443
Rp10444
sI-144
g1
((lp10445
I163
aI78
atp10446
Rp10447
sI-143
g1
((lp10448
I76
atp10449
Rp10450
sI-142
g1
((lp10451
I1894
aI1670
aI1895
aI456
aI76
aI1706
aI523
aI588
aI1630
aI1903
aI1896
aI1811
aI341
aI1174
aI983
aI1722
aI1289
aI1214
atp10452
Rp10453
sI-141
g1
((lp10454
I1408
aI1536
aI1794
aI363
aI1158
aI1537
aI648
aI1417
aI266
aI395
aI1165
aI398
aI877
aI144
aI216
aI531
aI276
aI1814
aI1857
aI1690
aI1821
aI286
aI1568
aI1186
aI291
aI1318
aI551
aI296
aI1833
aI1389
aI1708
aI1327
aI1544
aI818
aI1886
aI312
aI1509
aI190
aI191
aI1601
aI835
aI196
aI837
aI714
aI459
aI76
aI461
aI1870
aI1539
aI1235
aI654
aI1110
aI471
aI344
aI1499
aI1874
aI1678
aI1320
aI484
aI485
aI529
aI362
aI235
aI365
aI496
aI241
aI115
aI244
aI375
aI680
aI634
aI1517
aI252
aI746
aI1151
atp10455
Rp10456
sI-140
g1
((lp10457
I76
atp10458
Rp10459
sI-139
g1
((lp10460
I552
aI75
atp10461
Rp10462
sI-138
g1
((lp10463
I1964
aI74
aI1340
aI469
atp10464
Rp10465
sI-137
g1
((lp10466
I73
atp10467
Rp10468
sI-136
g1
((lp10469
I71
atp10470
Rp10471
sI-135
g1
((lp10472
I1538
aI647
aI138
aI396
aI1167
aI658
aI792
aI1570
aI1700
aI1321
aI1963
aI302
aI303
aI1457
aI394
aI69
aI199
aI1480
aI586
aI331
aI1360
aI1118
aI619
aI237
aI625
aI503
aI632
atp10473
Rp10474
sI-134
g1
((lp10475
I1538
aI69
aI199
aI138
aI1570
aI303
aI586
atp10476
Rp10477
sI-133
g1
((lp10478
I1664
aI1538
aI1285
aI138
aI912
aI1177
aI1570
aI1319
aI1963
aI303
aI1721
aI69
aI586
aI1356
aI1243
aI608
aI144
aI355
aI1703
aI1390
aI1398
aI1273
aI1147
atp10479
Rp10480
sI-132
g1
((lp10481
I1570
aI69
aI138
aI1538
aI303
aI586
atp10482
Rp10483
sI-131
g1
((lp10484
I232
aI1698
aI68
atp10485
Rp10486
sI-130
g1
((lp10487
I232
aI68
atp10488
Rp10489
sI-129
g1
((lp10490
I68
atp10491
Rp10492
sI-128
g1
((lp10493
I290
aI68
aI232
aI1954
aI689
aI1298
aI1109
aI1913
aI890
atp10494
Rp10495
sI-127
g1
((lp10496
I65
aI1950
atp10497
Rp10498
sI-126
g1
((lp10499
I65
aI1950
aI1174
atp10500
Rp10501
sI-125
g1
((lp10502
I65
aI1950
atp10503
Rp10504
sI-124
g1
((lp10505
I92
aI63
atp10506
Rp10507
sI-123
g1
((lp10508
I1480
aI1060
aI63
atp10509
Rp10510
sI-122
g1
((lp10511
I1700
aI63
atp10512
Rp10513
sI-121
g1
((lp10514
I1321
aI63
atp10515
Rp10516
sI-120
g1
((lp10517
I1375
aI387
aI63
atp10518
Rp10519
sI-119
g1
((lp10520
I970
aI387
aI63
atp10521
Rp10522
sI-118
g1
((lp10523
I1073
aI878
aI1628
aI61
aI70
atp10524
Rp10525
sI-117
g1
((lp10526
I878
aI61
aI70
atp10527
Rp10528
sI-116
g1
((lp10529
I878
aI61
aI70
atp10530
Rp10531
sI-115
g1
((lp10532
I1001
aI878
aI61
aI70
atp10533
Rp10534
sI-114
g1
((lp10535
I878
aI61
aI70
atp10536
Rp10537
sI-113
g1
((lp10538
I60
atp10539
Rp10540
sI-112
g1
((lp10541
I60
aI86
atp10542
Rp10543
sI-111
g1
((lp10544
I60
atp10545
Rp10546
sI-110
g1
((lp10547
I60
atp10548
Rp10549
sI-109
g1
((lp10550
I60
atp10551
Rp10552
sI-108
g1
((lp10553
I60
atp10554
Rp10555
sI-107
g1
((lp10556
I60
atp10557
Rp10558
sI-106
g1
((lp10559
I496
aI785
aI60
atp10560
Rp10561
sI-105
g1
((lp10562
I968
aI441
aI60
aI1492
atp10563
Rp10564
sI-104
g1
((lp10565
I58
atp10566
Rp10567
sI-103
g1
((lp10568
I73
aI58
aI1017
aI1018
aI391
atp10569
Rp10570
sI-102
g1
((lp10571
I58
aI1125
atp10572
Rp10573
sI-101
g1
((lp10574
I58
aI1125
aI1162
aI263
atp10575
Rp10576
sI-100
g1
((lp10577
I58
atp10578
Rp10579
sI-99
g1
((lp10580
I58
atp10581
Rp10582
sI-98
g1
((lp10583
I417
aI1554
aI1037
aI530
aI57
aI894
atp10584
Rp10585
sI-97
g1
((lp10586
I1628
aI197
aI1001
aI1037
aI1454
aI911
aI530
aI1556
aI1470
aI886
aI504
aI57
aI506
aI155
aI1564
aI894
atp10587
Rp10588
sI-96
g1
((lp10589
I1543
aI1800
aI522
aI1037
aI530
aI1556
aI155
aI1564
aI417
aI167
aI1197
aI183
aI57
aI1594
aI61
aI834
aI1603
aI502
aI70
aI1609
aI205
aI1805
aI1880
aI1628
aI482
aI872
aI873
aI875
aI1554
aI878
aI1904
aI886
aI506
aI1916
aI893
aI894
atp10590
Rp10591
sI-95
g1
((lp10592
I360
aI49
aI226
aI699
aI772
atp10593
Rp10594
sI-94
g1
((lp10595
I49
atp10596
Rp10597
sI-93
g1
((lp10598
I71
aI47
atp10599
Rp10600
sI-92
g1
((lp10601
I47
atp10602
Rp10603
sI-91
g1
((lp10604
I1609
aI45
atp10605
Rp10606
sI-90
g1
((lp10607
I504
aI911
aI45
aI197
atp10608
Rp10609
sI-89
g1
((lp10610
I45
atp10611
Rp10612
sI-88
g1
((lp10613
I45
atp10614
Rp10615
sI-87
g1
((lp10616
I128
aI1366
aI1061
aI1383
aI43
aI1837
aI1966
aI1669
aI593
aI501
aI853
aI1910
aI59
aI1372
aI255
atp10617
Rp10618
sI-86
g1
((lp10619
I1920
aI42
atp10620
Rp10621
sI-85
g1
((lp10622
I41
aI210
aI236
aI1029
aI1030
atp10623
Rp10624
sI-84
g1
((lp10625
I41
aI210
aI236
aI1029
aI1030
atp10626
Rp10627
sI-83
g1
((lp10628
I1830
aI354
aI843
aI1029
aI1702
aI41
aI1546
aI651
aI236
aI749
aI1198
aI656
aI145
aI210
aI867
aI1044
aI1589
aI377
aI541
aI1379
aI1941
atp10629
Rp10630
sI-82
g1
((lp10631
I1921
aI225
aI36
aI294
aI597
aI776
aI1449
aI747
aI430
aI464
aI309
aI1808
aI824
aI548
aI570
aI1883
aI1050
aI1278
aI575
atp10632
Rp10633
sI-81
g1
((lp10634
I36
atp10635
Rp10636
sI-80
g1
((lp10637
I34
atp10638
Rp10639
sI-79
g1
((lp10640
I1088
aI33
aI130
aI1189
aI168
aI1098
aI1369
aI1017
aI58
atp10641
Rp10642
sI-78
g1
((lp10643
I32
aI226
aI1339
atp10644
Rp10645
sI-77
g1
((lp10646
I31
atp10647
Rp10648
sI-76
g1
((lp10649
I1923
aI900
aI1925
aI1548
aI1550
aI1297
aI404
aI30
aI804
aI1649
aI40
aI1324
aI813
aI1199
aI1586
aI1587
aI310
aI1210
aI700
aI64
aI1218
aI708
aI76
aI1229
aI1487
aI1616
aI593
aI982
aI858
aI222
aI1380
aI621
aI1006
aI808
aI380
atp10650
Rp10651
sI-75
g1
((lp10652
I1025
aI519
aI523
aI1548
aI1837
aI1297
aI538
aI30
aI1831
aI809
aI813
aI174
aI221
aI310
aI1210
aI1598
aI64
aI708
aI1229
aI85
aI346
aI826
aI1630
aI1380
aI1809
aI1655
aI380
atp10653
Rp10654
sI-74
g1
((lp10655
I1025
aI1923
aI1925
aI1032
aI905
aI523
aI1164
aI813
aI1297
aI404
aI538
aI346
aI30
aI1188
aI37
aI39
aI809
aI1655
aI685
aI174
aI310
aI1673
aI1592
aI826
aI64
aI1248
aI708
aI1548
aI587
aI76
aI1229
aI1616
aI977
aI1108
aI85
aI858
aI1371
aI221
aI1630
aI480
aI1380
aI1766
aI1809
aI1831
aI1210
aI380
atp10656
Rp10657
sI-73
g1
((lp10658
I480
aI34
aI1655
aI1831
aI809
aI826
aI76
aI1229
aI1006
aI1809
aI858
aI404
aI85
aI1210
aI1592
aI1108
aI346
aI380
aI221
aI30
atp10659
Rp10660
sI-72
g1
((lp10661
I1126
aI29
aI654
aI519
atp10662
Rp10663
sI-71
g1
((lp10664
I28
atp10665
Rp10666
sI-70
g1
((lp10667
I188
aI28
atp10668
Rp10669
sI-69
g1
((lp10670
I28
atp10671
Rp10672
sI-68
g1
((lp10673
I1200
aI391
aI73
aI1588
aI912
aI1180
aI916
aI245
aI1737
aI1172
aI28
atp10674
Rp10675
sI-67
g1
((lp10676
I28
atp10677
Rp10678
sI-66
g1
((lp10679
I28
atp10680
Rp10681
sI-65
g1
((lp10682
I1172
aI643
aI1412
aI263
aI1545
aI1769
aI1036
aI1679
aI912
aI1961
aI274
aI660
aI750
aI792
aI1799
aI28
aI1312
aI1955
aI292
aI1321
aI554
aI647
aI941
aI1200
aI1084
aI63
aI1931
aI326
aI970
aI847
aI1360
aI1106
aI739
aI980
aI1273
aI1624
aI676
aI1871
aI92
aI608
aI355
aI869
aI616
aI1513
aI1386
aI622
aI1009
aI1908
aI1782
aI1705
aI889
aI1146
aI636
atp10683
Rp10684
sI-64
g1
((lp10685
I1424
aI679
aI328
aI1834
aI1264
aI28
atp10686
Rp10687
sI-63
g1
((lp10688
I27
atp10689
Rp10690
sI-62
g1
((lp10691
I388
aI1797
aI400
aI1944
aI1303
aI920
aI26
aI27
aI284
aI31
aI1057
aI1442
aI547
aI677
aI1835
aI1071
aI1203
aI1717
aI1718
aI1337
aI1093
aI333
aI1488
aI675
aI1370
aI732
aI234
aI1391
aI1395
aI120
aI508
aI1022
atp10692
Rp10693
sI-61
g1
((lp10694
I25
aI822
atp10695
Rp10696
sI-60
g1
((lp10697
I833
aI387
aI742
aI785
aI105
aI650
aI76
aI1293
aI451
aI1876
aI184
aI978
aI371
aI1492
aI822
aI152
aI25
aI410
aI703
atp10698
Rp10699
sI-59
g1
((lp10700
I25
aI822
atp10701
Rp10702
sI-58
g1
((lp10703
I25
aI822
atp10704
Rp10705
sI-57
g1
((lp10706
I25
aI822
atp10707
Rp10708
sI-56
g1
((lp10709
I23
atp10710
Rp10711
sI-55
g1
((lp10712
I800
aI537
aI1812
aI23
atp10713
Rp10714
sI-54
g1
((lp10715
I537
aI343
aI23
atp10716
Rp10717
sI-53
g1
((lp10718
I341
aI22
atp10719
Rp10720
sI-52
g1
((lp10721
I22
atp10722
Rp10723
sI-51
g1
((lp10724
I1225
aI971
aI463
aI1140
aI22
aI1897
aI1784
aI1807
aI1693
aI510
atp10725
Rp10726
sI-50
g1
((lp10727
I1924
aI22
atp10728
Rp10729
sI-49
g1
((lp10730
I707
aI1124
aI1014
aI678
aI1574
aI877
aI142
aI1773
aI720
aI1294
aI1235
aI149
aI22
aI1178
atp10731
Rp10732
sI-48
g1
((lp10733
I1905
aI21
atp10734
Rp10735
sI-47
g1
((lp10736
I21
aI734
atp10737
Rp10738
sI-46
g1
((lp10739
I21
atp10740
Rp10741
sI-45
g1
((lp10742
I939
aI20
aI36
aI550
aI553
aI559
aI1079
aI60
aI1087
aI577
aI67
aI581
aI1612
aI1613
aI1614
aI591
aI1617
aI596
aI1634
aI103
aI1128
aI112
aI640
aI1155
aI141
aI1680
aI1689
aI157
aI159
aI160
aI1734
aI1710
aI688
aI1719
aI1208
aI1725
aI1727
aI1728
aI1730
aI1732
aI1733
aI710
aI1736
aI713
aI1738
aI1739
aI716
aI1741
aI1742
aI1743
aI1744
aI1745
aI1746
aI1747
aI1748
aI1749
aI1750
aI1239
aI1752
aI729
aI1754
aI1755
aI1756
aI1757
aI1758
aI1761
aI1763
aI233
aI753
aI761
aI251
aI771
aI1802
aI1751
aI781
aI788
aI1302
aI1753
aI280
aI1311
aI295
aI812
aI301
aI823
aI1851
aI1344
aI1346
aI838
aI845
aI334
aI1890
aI373
aI1400
aI385
aI898
aI1411
aI402
aI923
aI928
aI418
aI1444
aI425
aI427
aI432
aI433
aI441
aI1695
aI956
aI959
aI968
aI1495
aI1956
aI1615
aI476
aI1510
aI487
aI488
aI489
aI491
aI492
aI500
aI505
aI1534
atp10743
Rp10744
sI-44
g1
((lp10745
I788
aI1495
aI20
aI823
atp10746
Rp10747
sI-43
g1
((lp10748
I788
aI1919
aI20
aI1495
atp10749
Rp10750
sI-42
g1
((lp10751
I788
aI435
aI20
atp10752
Rp10753
sI-41
g1
((lp10754
I256
aI353
aI847
aI496
aI20
aI885
aI788
aI667
aI543
atp10755
Rp10756
sI-40
g1
((lp10757
I788
aI20
atp10758
Rp10759
sI-39
g1
((lp10760
I1788
aI19
aI1428
aI981
aI574
atp10761
Rp10762
sI-38
g1
((lp10763
I19
atp10764
Rp10765
sI-37
g1
((lp10766
I19
aI574
atp10767
Rp10768
sI-36
g1
((lp10769
I18
aI1300
atp10770
Rp10771
sI-35
g1
((lp10772
I18
aI1300
atp10773
Rp10774
sI-34
g1
((lp10775
I18
aI1300
atp10776
Rp10777
sI-33
g1
((lp10778
I18
aI1147
aI1300
aI1398
atp10779
Rp10780
sI-32
g1
((lp10781
I1737
aI18
aI1300
aI1961
atp10782
Rp10783
sI-31
g1
((lp10784
I18
aI1300
atp10785
Rp10786
sI-30
g1
((lp10787
I18
atp10788
Rp10789
sI-29
g1
((lp10790
I1024
aI1026
aI1028
aI682
aI1547
aI1538
aI1039
aI1040
aI1041
aI18
aI21
aI534
aI1625
aI24
aI1540
aI539
aI1052
aI1947
aI545
aI1570
aI1571
aI1573
aI1065
aI1067
aI1069
aI52
aI1405
aI54
aI56
aI1460
aI1119
aI1085
aI1086
aI1376
aI1090
aI1091
aI1092
aI69
aI1094
aI1095
aI1608
aI586
aI1099
aI1100
aI77
aI590
aI1618
aI1107
aI1162
aI88
aI89
aI93
aI95
aI1120
aI609
aI98
aI99
aI612
aI1125
aI102
aI1129
aI106
aI107
aI108
aI1133
aI623
aI114
aI1299
aI117
aI118
aI119
aI1656
aI121
aI1146
aI635
aI124
aI125
aI1662
aI1152
aI129
aI1131
aI645
aI135
aI1160
aI1132
aI138
aI1163
aI1166
aI143
aI536
aI146
aI1683
aI1172
aI1130
aI1175
aI1176
aI1177
aI154
aI1135
aI1180
aI1181
aI158
aI1183
aI1184
aI1699
aI943
aI1190
aI1191
aI1192
aI1193
aI170
aI172
aI1965
aI1201
aI1815
aI179
aI1472
aI1481
aI1720
aI185
aI1211
aI1212
aI1482
aI702
aI1216
aI1217
aI194
aI1219
aI1142
aI198
aI199
aI201
aI1406
aI207
aI1123
aI212
aI1145
aI1241
aI220
aI733
aI223
aI1222
aI1968
aI1407
aI743
aI1148
aI1770
aI237
aI238
aI239
aI240
aI757
aI1275
aI765
aI766
aI1793
aI770
aI1952
aI1798
aI1153
aI264
aI1292
aI271
aI273
aI787
aI1300
aI1497
aI1816
aI1817
aI796
aI1310
aI287
aI1635
aI1315
aI1317
aI1122
aI299
aI1101
aI303
aI1672
aI1330
aI307
aI1357
aI1161
aI1588
aI1338
aI828
aI317
aI1854
aI1581
aI1345
aI322
aI323
aI1590
aI1511
aI1949
aI1355
aI845
aI336
aI1080
aI338
aI852
aI1341
aI855
aI856
aI345
aI349
aI864
aI865
aI1823
aI358
aI874
aI1255
aI366
aI367
aI882
aI883
aI1308
aI887
aI376
aI1684
aI381
aI382
aI917
aI386
aI389
aI391
aI904
aI1930
aI907
aI1935
aI401
aI1938
aI1427
aI1940
aI610
aI407
aI1957
aI411
aI925
aI414
aI416
aI929
aI1179
aI421
aI422
aI1960
aI941
aI431
aI1685
aI1969
aI948
aI949
aI954
aI1907
aI958
aI960
aI961
aI962
aI963
aI964
aI967
aI1413
aI969
aI458
aI1157
aI975
aI1443
aI1102
aI470
aI1701
aI1496
aI985
aI987
aI1445
aI1504
aI1507
aI1958
aI1361
aI1512
aI647
aI1005
aI1008
aI1704
aI1010
aI1943
aI1018
aI1159
aI509
aI1023
atp10791
Rp10792
sI-28
g1
((lp10793
I1792
aI1410
aI131
aI1494
aI1416
aI1801
aI267
aI399
aI17
aI1939
aI1045
aI408
aI922
aI1306
aI799
aI1075
aI34
aI1265
aI1578
aI1196
aI814
aI1437
aI48
aI51
aI1205
aI952
aI825
aI1951
aI321
aI1602
aI580
aI966
aI1227
aI1464
aI214
aI697
aI475
aI1887
aI481
aI1638
aI486
aI1276
aI1258
aI364
aI493
aI1518
aI879
aI1392
aI1137
aI1140
aI630
aI1144
aI892
atp10794
Rp10795
sI-27
g1
((lp10796
I514
aI87
aI12
aI13
aI16
aI1042
aI1569
aI35
aI1572
aI38
aI1063
aI50
aI567
aI693
aI1600
aI1610
aI1611
aI599
aI1626
aI1627
aI1116
aI1631
aI1632
aI1636
aI615
aI1134
aI1139
aI628
aI1654
aI1661
aI639
aI1668
aI659
aI662
aI1062
aI1696
aI1709
aI1711
aI1715
aI692
aI181
aI193
aI706
aI195
aI1220
aI1740
aI1244
aI735
aI737
aI738
aI1253
aI745
aI1771
aI1776
aI1266
aI1268
aI1781
aI1270
aI762
aI259
aI1806
aI1295
aI786
aI790
aI795
aI1822
aI1829
aI1328
aI1842
aI1843
aI478
aI829
aI1858
aI839
aI1352
aI1865
aI342
aI857
aI859
aI863
aI868
aI1384
aI1257
aI378
aI1429
aI1430
aI903
aI906
aI1419
aI1421
aI1423
aI1936
aI1425
aI405
aI918
aI1948
aI1953
aI936
aI942
aI1455
aI955
aI246
aI1479
aI457
aI1493
aI250
aI1502
aI483
aI998
aI490
aI497
aI1522
aI1523
aI1525
aI1530
aI507
aI1533
atp10797
Rp10798
sI-26
g1
((lp10799
I514
aI12
aI13
aI16
aI1042
aI1569
aI35
aI38
aI1063
aI50
aI567
aI693
aI1600
aI1610
aI1611
aI599
aI1626
aI1627
aI1116
aI1631
aI1632
aI615
aI1134
aI1139
aI628
aI1654
aI1661
aI639
aI1668
aI659
aI662
aI1696
aI1711
aI1715
aI181
aI193
aI706
aI195
aI1220
aI1740
aI1244
aI735
aI737
aI738
aI745
aI1771
aI1776
aI1266
aI1268
aI1781
aI246
aI762
aI259
aI1806
aI1295
aI790
aI795
aI1822
aI1829
aI1328
aI1842
aI478
aI829
aI839
aI1352
aI1865
aI342
aI857
aI859
aI863
aI868
aI1257
aI378
aI1429
aI1430
aI903
aI906
aI1419
aI1421
aI1423
aI1936
aI1425
aI405
aI918
aI1948
aI1953
aI936
aI942
aI1455
aI1479
aI1493
aI250
aI1502
aI483
aI998
aI490
aI497
aI1522
aI1523
aI1525
aI1530
aI507
aI1533
atp10800
Rp10801
sI-25
g1
((lp10802
I514
aI12
aI13
aI16
aI1042
aI1569
aI35
aI38
aI1063
aI50
aI567
aI693
aI1600
aI1610
aI1611
aI599
aI1626
aI1627
aI1116
aI1631
aI1632
aI615
aI1134
aI1139
aI628
aI1654
aI1661
aI639
aI1668
aI659
aI662
aI1696
aI1711
aI1715
aI181
aI193
aI706
aI195
aI1220
aI1740
aI1244
aI735
aI737
aI738
aI745
aI1771
aI1776
aI1266
aI1268
aI1781
aI246
aI762
aI259
aI1806
aI1295
aI790
aI795
aI1822
aI1829
aI1328
aI1842
aI478
aI829
aI839
aI1352
aI1865
aI342
aI857
aI859
aI863
aI868
aI1257
aI378
aI1429
aI1430
aI903
aI906
aI1419
aI1421
aI1423
aI1936
aI1425
aI405
aI918
aI1948
aI1953
aI936
aI942
aI1455
aI1479
aI1493
aI250
aI1502
aI483
aI998
aI490
aI497
aI1522
aI1523
aI1525
aI1530
aI507
aI1533
atp10803
Rp10804
sI-24
g1
((lp10805
I514
aI12
aI13
aI16
aI1042
aI1569
aI35
aI38
aI1063
aI50
aI567
aI693
aI1600
aI1610
aI1611
aI599
aI1626
aI1627
aI1116
aI1631
aI1632
aI615
aI1134
aI1139
aI628
aI1654
aI1661
aI639
aI1668
aI659
aI662
aI1696
aI1711
aI1715
aI181
aI193
aI706
aI195
aI1220
aI1740
aI1244
aI735
aI737
aI738
aI745
aI1771
aI1776
aI1266
aI1268
aI1781
aI246
aI762
aI259
aI1806
aI1295
aI790
aI795
aI1822
aI1829
aI1328
aI1842
aI478
aI829
aI839
aI1352
aI1865
aI342
aI857
aI859
aI863
aI868
aI1257
aI378
aI1429
aI1430
aI903
aI906
aI1419
aI1421
aI1423
aI1936
aI1425
aI405
aI918
aI1948
aI1953
aI936
aI942
aI1455
aI1479
aI1493
aI250
aI1502
aI483
aI998
aI490
aI497
aI1522
aI1523
aI1525
aI1530
aI507
aI1533
atp10806
Rp10807
sI-23
g1
((lp10808
I736
aI297
aI11
aI1580
aI1850
aI444
atp10809
Rp10810
sI-22
g1
((lp10811
I10
atp10812
Rp10813
sI-21
g1
((lp10814
I10
atp10815
Rp10816
sI-20
g1
((lp10817
I10
atp10818
Rp10819
sI-19
g1
((lp10820
I10
atp10821
Rp10822
sI-18
g1
((lp10823
I10
atp10824
Rp10825
sI-17
g1
((lp10826
I9
atp10827
Rp10828
sI-16
g1
((lp10829
I1349
aI752
aI1251
aI133
aI774
aI71
aI9
aI1377
aI494
aI47
aI560
aI850
aI1326
aI526
aI1656
aI89
aI730
aI1662
aI127
atp10830
Rp10831
sI-15
g1
((lp10832
I9
atp10833
Rp10834
sI-14
g1
((lp10835
I9
atp10836
Rp10837
sI-13
g1
((lp10838
I7
atp10839
Rp10840
sI-12
g1
((lp10841
I578
aI452
aI6
aI1329
aI1643
aI802
aI881
aI472
aI1215
atp10842
Rp10843
sI-11
g1
((lp10844
I512
aI5
aI1542
aI1033
aI524
aI1549
aI15
aI528
aI1553
aI1559
aI1560
aI1563
aI32
aI1064
aI1066
aI1579
aI1580
aI49
aI1716
aI1082
aI1596
aI78
aI79
aI1620
aI1114
aI1551
aI101
aI104
aI1646
aI957
aI1652
aI1653
aI1150
aI1666
aI1676
aI655
aI151
aI1697
aI163
aI679
aI169
aI176
aI1714
aI180
aI187
aI1726
aI629
aI1225
aI204
aI224
aI231
aI748
aI1777
aI1784
aI1787
aI1281
aI772
aI1290
aI780
aI1807
aI272
aI791
aI1316
aI810
aI817
aI1331
aI1844
aI1847
aI1850
aI1339
aI1853
aI1348
aI328
aI1363
aI1365
aI1878
aI1882
aI860
aI351
aI1888
aI360
aI1897
aI368
aI1906
aI899
aI909
aI914
aI1946
aI924
aI927
aI423
aI1448
aI1962
aI940
aI445
aI1473
aI455
aI460
aI1490
aI1491
aI989
aI1959
aI499
aI1020
aI510
aI511
atp10845
Rp10846
sI-10
g1
((lp10847
I512
aI5
aI1033
aI1290
aI1676
aI1549
aI15
aI1553
aI151
aI927
aI1697
aI1194
aI940
aI1716
aI1225
aI187
aI524
aI1620
aI1889
aI611
aI231
aI1897
aI368
aI1777
aI1787
aI1020
atp10848
Rp10849
sI-9
g1
((lp10850
I512
aI5
aI1033
aI1290
aI1676
aI1549
aI15
aI1553
aI151
aI927
aI1697
aI1194
aI940
aI1716
aI1225
aI187
aI524
aI589
aI593
aI1620
aI1889
aI611
aI231
aI1897
aI368
aI1777
aI1787
aI1020
atp10851
Rp10852
sI-8
g1
((lp10853
I512
aI5
aI1033
aI1290
aI524
aI1549
aI15
aI1553
aI151
aI927
aI1697
aI1676
aI1194
aI940
aI1716
aI187
aI1225
aI589
aI593
aI1620
aI1889
aI611
aI231
aI1897
aI368
aI1777
aI242
aI1787
aI1020
atp10854
Rp10855
sI-7
g1
((lp10856
I512
aI5
aI518
aI519
aI1033
aI524
aI1549
aI15
aI1552
aI1553
aI533
aI29
aI1029
aI1030
aI41
aI1031
aI51
aI568
aI1598
aI1602
aI580
aI589
aI1620
aI1112
aI602
aI606
aI611
aI1638
aI1642
aI1144
aI128
aI646
aI649
aI1676
aI1169
aI151
aI1691
aI1697
aI1194
aI1716
aI1205
aI695
aI697
aI186
aI187
aI189
aI1225
aI210
aI1237
aI214
aI231
aI1258
aI236
aI751
aI1265
aI242
aI1783
aI1787
aI777
aI1290
aI267
aI1296
aI794
aI1819
aI297
aI1323
aI1334
aI1848
aI825
aI1864
aI330
aI1867
aI848
aI851
aI1889
aI1897
aI1388
aI879
aI368
aI1914
aI895
aI1924
aI390
aI1420
aI1942
aI1945
aI927
aI1440
aI1441
aI419
aI420
aI1777
aI426
aI940
aI1966
aI947
aI437
aI1469
aI1477
aI972
aI1508
aI1515
aI1020
atp10857
Rp10858
sI-6
g1
((lp10859
I512
aI5
aI1033
aI1290
aI524
aI1549
aI15
aI1553
aI1170
aI151
aI156
aI927
aI1697
aI1676
aI807
aI426
aI1707
aI940
aI1716
aI568
aI187
aI316
aI1225
aI589
aI1620
aI1373
aI1889
aI611
aI231
aI1640
aI1897
aI1515
aI368
aI1777
aI242
aI1787
aI1020
aI1194
atp10860
Rp10861
sI-5
g1
((lp10862
I1676
aI5
aI231
aI1033
aI524
aI1777
aI151
aI927
atp10863
Rp10864
sI-4
g1
((lp10865
I4
aI14
aI19
aI1047
aI26
aI27
aI28
aI31
aI1057
aI547
aI1060
aI552
aI556
aI1070
aI1071
aI562
aI566
aI574
aI1093
aI1096
aI585
aI75
aI592
aI595
aI84
aI1621
aI598
aI1721
aI600
aI91
aI1117
aI94
aI1381
aI1127
aI1647
aI1136
aI116
aI1893
aI120
aI1147
aI126
aI1664
aI192
aI1156
aI139
aI666
aI1562
aI1182
aI672
aI1648
aI675
aI164
aI165
aI1703
aI1223
aI690
aI1203
aI1717
aI1718
aI1737
aI1209
aI188
aI1213
aI704
aI711
aI200
aI713
aI715
aI1797
aI1238
aI1243
aI732
aI1337
aI1247
aI123
aI229
aI234
aI756
aI758
aI248
aI1788
aI767
aI1284
aI1285
aI262
aI1307
aI284
aI285
aI1629
aI1825
aI805
aI1319
aI1835
aI820
aI1333
aI1335
aI308
aI315
aI1860
aI1351
aI842
aI1356
aI333
aI313
aI1370
aI1885
aI1375
aI357
aI870
aI1901
aI1390
aI1391
aI370
aI1395
aI884
aI1398
aI1918
aI1922
aI388
aI400
aI1944
aI1428
aI919
aI920
aI1436
aI1442
aI1463
aI944
aI1970
aI73
aI450
aI1488
aI981
aI677
aI1104
aI1619
aI1529
aI508
aI1022
atp10866
Rp10867
sI-3
g1
((lp10868
I1856
aI2
aI1859
aI871
aI1900
aI1514
aI1387
aI332
aI1485
aI1767
aI880
aI1233
aI1362
aI1506
aI759
aI1855
aI62
aI991
atp10869
Rp10870
sI-2
g1
((lp10871
I384
aI2
aI134
aI908
aI397
aI528
aI1863
aI915
aI1282
aI1560
aI281
aI1114
aI861
aI288
aI801
aI1514
aI169
aI938
aI683
aI44
aI815
aI176
aI840
aI180
aI1846
aI439
aI696
aI1959
aI1385
aI1853
aI62
aI1856
aI1767
aI1859
aI1607
aI72
aI844
aI759
aI332
aI973
aI1486
aI1485
aI1490
aI81
aI466
aI1875
aI1233
aI213
aI1367
aI1520
aI602
aI605
aI991
aI224
aI1765
aI1506
aI1891
aI740
aI101
aI1254
aI617
aI361
aI618
aI871
aI1900
aI1362
aI1518
aI1575
aI880
aI1521
aI242
aI1013
aI1666
aI247
aI249
aI1274
aI1660
aI253
aI1785
aI383
atp10872
Rp10873
s.